
ds18b20.elf:     file format elf32-littlearm

Sections:
Idx Name          Size      VMA       LMA       File off  Algn
  0 .isr_vector   0000010c  08000000  08000000  00010000  2**0
                  CONTENTS, ALLOC, LOAD, READONLY, DATA
  1 .text         00003b68  08000110  08000110  00010110  2**3
                  CONTENTS, ALLOC, LOAD, READONLY, CODE
  2 .rodata       000002a8  08003c78  08003c78  00013c78  2**3
                  CONTENTS, ALLOC, LOAD, READONLY, DATA
  3 .init_array   00000004  08003f20  08003f20  00013f20  2**2
                  CONTENTS, ALLOC, LOAD, DATA
  4 .fini_array   00000004  08003f24  08003f24  00013f24  2**2
                  CONTENTS, ALLOC, LOAD, DATA
  5 .data         000001e0  20000000  08003f28  00020000  2**2
                  CONTENTS, ALLOC, LOAD, DATA
  6 .bss          00000070  200001e0  08004108  000201e0  2**2
                  ALLOC
  7 ._user_heap_stack 00000600  20000250  08004108  00020250  2**0
                  ALLOC
  8 .ARM.attributes 00000029  00000000  00000000  000201e0  2**0
                  CONTENTS, READONLY
  9 .debug_info   0000affb  00000000  00000000  00020209  2**0
                  CONTENTS, READONLY, DEBUGGING
 10 .debug_abbrev 00001b91  00000000  00000000  0002b204  2**0
                  CONTENTS, READONLY, DEBUGGING
 11 .debug_loc    0000238d  00000000  00000000  0002cd95  2**0
                  CONTENTS, READONLY, DEBUGGING
 12 .debug_aranges 00000510  00000000  00000000  0002f128  2**3
                  CONTENTS, READONLY, DEBUGGING
 13 .debug_ranges 000006b0  00000000  00000000  0002f638  2**3
                  CONTENTS, READONLY, DEBUGGING
 14 .debug_line   00002f37  00000000  00000000  0002fce8  2**0
                  CONTENTS, READONLY, DEBUGGING
 15 .debug_str    0000203c  00000000  00000000  00032c1f  2**0
                  CONTENTS, READONLY, DEBUGGING
 16 .comment      0000007c  00000000  00000000  00034c5b  2**0
                  CONTENTS, READONLY
 17 .debug_frame  000016ec  00000000  00000000  00034cd8  2**2
                  CONTENTS, READONLY, DEBUGGING

Disassembly of section .text:

08000110 <__do_global_dtors_aux>:
 8000110:	b510      	push	{r4, lr}
 8000112:	4c05      	ldr	r4, [pc, #20]	; (8000128 <__do_global_dtors_aux+0x18>)
 8000114:	7823      	ldrb	r3, [r4, #0]
 8000116:	b933      	cbnz	r3, 8000126 <__do_global_dtors_aux+0x16>
 8000118:	4b04      	ldr	r3, [pc, #16]	; (800012c <__do_global_dtors_aux+0x1c>)
 800011a:	b113      	cbz	r3, 8000122 <__do_global_dtors_aux+0x12>
 800011c:	4804      	ldr	r0, [pc, #16]	; (8000130 <__do_global_dtors_aux+0x20>)
 800011e:	f3af 8000 	nop.w
 8000122:	2301      	movs	r3, #1
 8000124:	7023      	strb	r3, [r4, #0]
 8000126:	bd10      	pop	{r4, pc}
 8000128:	200001e0 	.word	0x200001e0
 800012c:	00000000 	.word	0x00000000
 8000130:	08003c60 	.word	0x08003c60

08000134 <frame_dummy>:
 8000134:	b508      	push	{r3, lr}
 8000136:	4b03      	ldr	r3, [pc, #12]	; (8000144 <frame_dummy+0x10>)
 8000138:	b11b      	cbz	r3, 8000142 <frame_dummy+0xe>
 800013a:	4903      	ldr	r1, [pc, #12]	; (8000148 <frame_dummy+0x14>)
 800013c:	4803      	ldr	r0, [pc, #12]	; (800014c <frame_dummy+0x18>)
 800013e:	f3af 8000 	nop.w
 8000142:	bd08      	pop	{r3, pc}
 8000144:	00000000 	.word	0x00000000
 8000148:	200001e4 	.word	0x200001e4
 800014c:	08003c60 	.word	0x08003c60

08000150 <strlen>:
 8000150:	4603      	mov	r3, r0
 8000152:	f813 2b01 	ldrb.w	r2, [r3], #1
 8000156:	2a00      	cmp	r2, #0
 8000158:	d1fb      	bne.n	8000152 <strlen+0x2>
 800015a:	1a18      	subs	r0, r3, r0
 800015c:	3801      	subs	r0, #1
 800015e:	4770      	bx	lr

08000160 <__aeabi_drsub>:
 8000160:	f081 4100 	eor.w	r1, r1, #2147483648	; 0x80000000
 8000164:	e002      	b.n	800016c <__adddf3>
 8000166:	bf00      	nop

08000168 <__aeabi_dsub>:
 8000168:	f083 4300 	eor.w	r3, r3, #2147483648	; 0x80000000

0800016c <__adddf3>:
 800016c:	b530      	push	{r4, r5, lr}
 800016e:	ea4f 0441 	mov.w	r4, r1, lsl #1
 8000172:	ea4f 0543 	mov.w	r5, r3, lsl #1
 8000176:	ea94 0f05 	teq	r4, r5
 800017a:	bf08      	it	eq
 800017c:	ea90 0f02 	teqeq	r0, r2
 8000180:	bf1f      	itttt	ne
 8000182:	ea54 0c00 	orrsne.w	ip, r4, r0
 8000186:	ea55 0c02 	orrsne.w	ip, r5, r2
 800018a:	ea7f 5c64 	mvnsne.w	ip, r4, asr #21
 800018e:	ea7f 5c65 	mvnsne.w	ip, r5, asr #21
 8000192:	f000 80e2 	beq.w	800035a <__adddf3+0x1ee>
 8000196:	ea4f 5454 	mov.w	r4, r4, lsr #21
 800019a:	ebd4 5555 	rsbs	r5, r4, r5, lsr #21
 800019e:	bfb8      	it	lt
 80001a0:	426d      	neglt	r5, r5
 80001a2:	dd0c      	ble.n	80001be <__adddf3+0x52>
 80001a4:	442c      	add	r4, r5
 80001a6:	ea80 0202 	eor.w	r2, r0, r2
 80001aa:	ea81 0303 	eor.w	r3, r1, r3
 80001ae:	ea82 0000 	eor.w	r0, r2, r0
 80001b2:	ea83 0101 	eor.w	r1, r3, r1
 80001b6:	ea80 0202 	eor.w	r2, r0, r2
 80001ba:	ea81 0303 	eor.w	r3, r1, r3
 80001be:	2d36      	cmp	r5, #54	; 0x36
 80001c0:	bf88      	it	hi
 80001c2:	bd30      	pophi	{r4, r5, pc}
 80001c4:	f011 4f00 	tst.w	r1, #2147483648	; 0x80000000
 80001c8:	ea4f 3101 	mov.w	r1, r1, lsl #12
 80001cc:	f44f 1c80 	mov.w	ip, #1048576	; 0x100000
 80001d0:	ea4c 3111 	orr.w	r1, ip, r1, lsr #12
 80001d4:	d002      	beq.n	80001dc <__adddf3+0x70>
 80001d6:	4240      	negs	r0, r0
 80001d8:	eb61 0141 	sbc.w	r1, r1, r1, lsl #1
 80001dc:	f013 4f00 	tst.w	r3, #2147483648	; 0x80000000
 80001e0:	ea4f 3303 	mov.w	r3, r3, lsl #12
 80001e4:	ea4c 3313 	orr.w	r3, ip, r3, lsr #12
 80001e8:	d002      	beq.n	80001f0 <__adddf3+0x84>
 80001ea:	4252      	negs	r2, r2
 80001ec:	eb63 0343 	sbc.w	r3, r3, r3, lsl #1
 80001f0:	ea94 0f05 	teq	r4, r5
 80001f4:	f000 80a7 	beq.w	8000346 <__adddf3+0x1da>
 80001f8:	f1a4 0401 	sub.w	r4, r4, #1
 80001fc:	f1d5 0e20 	rsbs	lr, r5, #32
 8000200:	db0d      	blt.n	800021e <__adddf3+0xb2>
 8000202:	fa02 fc0e 	lsl.w	ip, r2, lr
 8000206:	fa22 f205 	lsr.w	r2, r2, r5
 800020a:	1880      	adds	r0, r0, r2
 800020c:	f141 0100 	adc.w	r1, r1, #0
 8000210:	fa03 f20e 	lsl.w	r2, r3, lr
 8000214:	1880      	adds	r0, r0, r2
 8000216:	fa43 f305 	asr.w	r3, r3, r5
 800021a:	4159      	adcs	r1, r3
 800021c:	e00e      	b.n	800023c <__adddf3+0xd0>
 800021e:	f1a5 0520 	sub.w	r5, r5, #32
 8000222:	f10e 0e20 	add.w	lr, lr, #32
 8000226:	2a01      	cmp	r2, #1
 8000228:	fa03 fc0e 	lsl.w	ip, r3, lr
 800022c:	bf28      	it	cs
 800022e:	f04c 0c02 	orrcs.w	ip, ip, #2
 8000232:	fa43 f305 	asr.w	r3, r3, r5
 8000236:	18c0      	adds	r0, r0, r3
 8000238:	eb51 71e3 	adcs.w	r1, r1, r3, asr #31
 800023c:	f001 4500 	and.w	r5, r1, #2147483648	; 0x80000000
 8000240:	d507      	bpl.n	8000252 <__adddf3+0xe6>
 8000242:	f04f 0e00 	mov.w	lr, #0
 8000246:	f1dc 0c00 	rsbs	ip, ip, #0
 800024a:	eb7e 0000 	sbcs.w	r0, lr, r0
 800024e:	eb6e 0101 	sbc.w	r1, lr, r1
 8000252:	f5b1 1f80 	cmp.w	r1, #1048576	; 0x100000
 8000256:	d31b      	bcc.n	8000290 <__adddf3+0x124>
 8000258:	f5b1 1f00 	cmp.w	r1, #2097152	; 0x200000
 800025c:	d30c      	bcc.n	8000278 <__adddf3+0x10c>
 800025e:	0849      	lsrs	r1, r1, #1
 8000260:	ea5f 0030 	movs.w	r0, r0, rrx
 8000264:	ea4f 0c3c 	mov.w	ip, ip, rrx
 8000268:	f104 0401 	add.w	r4, r4, #1
 800026c:	ea4f 5244 	mov.w	r2, r4, lsl #21
 8000270:	f512 0f80 	cmn.w	r2, #4194304	; 0x400000
 8000274:	f080 809a 	bcs.w	80003ac <__adddf3+0x240>
 8000278:	f1bc 4f00 	cmp.w	ip, #2147483648	; 0x80000000
 800027c:	bf08      	it	eq
 800027e:	ea5f 0c50 	movseq.w	ip, r0, lsr #1
 8000282:	f150 0000 	adcs.w	r0, r0, #0
 8000286:	eb41 5104 	adc.w	r1, r1, r4, lsl #20
 800028a:	ea41 0105 	orr.w	r1, r1, r5
 800028e:	bd30      	pop	{r4, r5, pc}
 8000290:	ea5f 0c4c 	movs.w	ip, ip, lsl #1
 8000294:	4140      	adcs	r0, r0
 8000296:	eb41 0101 	adc.w	r1, r1, r1
 800029a:	f411 1f80 	tst.w	r1, #1048576	; 0x100000
 800029e:	f1a4 0401 	sub.w	r4, r4, #1
 80002a2:	d1e9      	bne.n	8000278 <__adddf3+0x10c>
 80002a4:	f091 0f00 	teq	r1, #0
 80002a8:	bf04      	itt	eq
 80002aa:	4601      	moveq	r1, r0
 80002ac:	2000      	moveq	r0, #0
 80002ae:	fab1 f381 	clz	r3, r1
 80002b2:	bf08      	it	eq
 80002b4:	3320      	addeq	r3, #32
 80002b6:	f1a3 030b 	sub.w	r3, r3, #11
 80002ba:	f1b3 0220 	subs.w	r2, r3, #32
 80002be:	da0c      	bge.n	80002da <__adddf3+0x16e>
 80002c0:	320c      	adds	r2, #12
 80002c2:	dd08      	ble.n	80002d6 <__adddf3+0x16a>
 80002c4:	f102 0c14 	add.w	ip, r2, #20
 80002c8:	f1c2 020c 	rsb	r2, r2, #12
 80002cc:	fa01 f00c 	lsl.w	r0, r1, ip
 80002d0:	fa21 f102 	lsr.w	r1, r1, r2
 80002d4:	e00c      	b.n	80002f0 <__adddf3+0x184>
 80002d6:	f102 0214 	add.w	r2, r2, #20
 80002da:	bfd8      	it	le
 80002dc:	f1c2 0c20 	rsble	ip, r2, #32
 80002e0:	fa01 f102 	lsl.w	r1, r1, r2
 80002e4:	fa20 fc0c 	lsr.w	ip, r0, ip
 80002e8:	bfdc      	itt	le
 80002ea:	ea41 010c 	orrle.w	r1, r1, ip
 80002ee:	4090      	lslle	r0, r2
 80002f0:	1ae4      	subs	r4, r4, r3
 80002f2:	bfa2      	ittt	ge
 80002f4:	eb01 5104 	addge.w	r1, r1, r4, lsl #20
 80002f8:	4329      	orrge	r1, r5
 80002fa:	bd30      	popge	{r4, r5, pc}
 80002fc:	ea6f 0404 	mvn.w	r4, r4
 8000300:	3c1f      	subs	r4, #31
 8000302:	da1c      	bge.n	800033e <__adddf3+0x1d2>
 8000304:	340c      	adds	r4, #12
 8000306:	dc0e      	bgt.n	8000326 <__adddf3+0x1ba>
 8000308:	f104 0414 	add.w	r4, r4, #20
 800030c:	f1c4 0220 	rsb	r2, r4, #32
 8000310:	fa20 f004 	lsr.w	r0, r0, r4
 8000314:	fa01 f302 	lsl.w	r3, r1, r2
 8000318:	ea40 0003 	orr.w	r0, r0, r3
 800031c:	fa21 f304 	lsr.w	r3, r1, r4
 8000320:	ea45 0103 	orr.w	r1, r5, r3
 8000324:	bd30      	pop	{r4, r5, pc}
 8000326:	f1c4 040c 	rsb	r4, r4, #12
 800032a:	f1c4 0220 	rsb	r2, r4, #32
 800032e:	fa20 f002 	lsr.w	r0, r0, r2
 8000332:	fa01 f304 	lsl.w	r3, r1, r4
 8000336:	ea40 0003 	orr.w	r0, r0, r3
 800033a:	4629      	mov	r1, r5
 800033c:	bd30      	pop	{r4, r5, pc}
 800033e:	fa21 f004 	lsr.w	r0, r1, r4
 8000342:	4629      	mov	r1, r5
 8000344:	bd30      	pop	{r4, r5, pc}
 8000346:	f094 0f00 	teq	r4, #0
 800034a:	f483 1380 	eor.w	r3, r3, #1048576	; 0x100000
 800034e:	bf06      	itte	eq
 8000350:	f481 1180 	eoreq.w	r1, r1, #1048576	; 0x100000
 8000354:	3401      	addeq	r4, #1
 8000356:	3d01      	subne	r5, #1
 8000358:	e74e      	b.n	80001f8 <__adddf3+0x8c>
 800035a:	ea7f 5c64 	mvns.w	ip, r4, asr #21
 800035e:	bf18      	it	ne
 8000360:	ea7f 5c65 	mvnsne.w	ip, r5, asr #21
 8000364:	d029      	beq.n	80003ba <__adddf3+0x24e>
 8000366:	ea94 0f05 	teq	r4, r5
 800036a:	bf08      	it	eq
 800036c:	ea90 0f02 	teqeq	r0, r2
 8000370:	d005      	beq.n	800037e <__adddf3+0x212>
 8000372:	ea54 0c00 	orrs.w	ip, r4, r0
 8000376:	bf04      	itt	eq
 8000378:	4619      	moveq	r1, r3
 800037a:	4610      	moveq	r0, r2
 800037c:	bd30      	pop	{r4, r5, pc}
 800037e:	ea91 0f03 	teq	r1, r3
 8000382:	bf1e      	ittt	ne
 8000384:	2100      	movne	r1, #0
 8000386:	2000      	movne	r0, #0
 8000388:	bd30      	popne	{r4, r5, pc}
 800038a:	ea5f 5c54 	movs.w	ip, r4, lsr #21
 800038e:	d105      	bne.n	800039c <__adddf3+0x230>
 8000390:	0040      	lsls	r0, r0, #1
 8000392:	4149      	adcs	r1, r1
 8000394:	bf28      	it	cs
 8000396:	f041 4100 	orrcs.w	r1, r1, #2147483648	; 0x80000000
 800039a:	bd30      	pop	{r4, r5, pc}
 800039c:	f514 0480 	adds.w	r4, r4, #4194304	; 0x400000
 80003a0:	bf3c      	itt	cc
 80003a2:	f501 1180 	addcc.w	r1, r1, #1048576	; 0x100000
 80003a6:	bd30      	popcc	{r4, r5, pc}
 80003a8:	f001 4500 	and.w	r5, r1, #2147483648	; 0x80000000
 80003ac:	f045 41fe 	orr.w	r1, r5, #2130706432	; 0x7f000000
 80003b0:	f441 0170 	orr.w	r1, r1, #15728640	; 0xf00000
 80003b4:	f04f 0000 	mov.w	r0, #0
 80003b8:	bd30      	pop	{r4, r5, pc}
 80003ba:	ea7f 5c64 	mvns.w	ip, r4, asr #21
 80003be:	bf1a      	itte	ne
 80003c0:	4619      	movne	r1, r3
 80003c2:	4610      	movne	r0, r2
 80003c4:	ea7f 5c65 	mvnseq.w	ip, r5, asr #21
 80003c8:	bf1c      	itt	ne
 80003ca:	460b      	movne	r3, r1
 80003cc:	4602      	movne	r2, r0
 80003ce:	ea50 3401 	orrs.w	r4, r0, r1, lsl #12
 80003d2:	bf06      	itte	eq
 80003d4:	ea52 3503 	orrseq.w	r5, r2, r3, lsl #12
 80003d8:	ea91 0f03 	teqeq	r1, r3
 80003dc:	f441 2100 	orrne.w	r1, r1, #524288	; 0x80000
 80003e0:	bd30      	pop	{r4, r5, pc}
 80003e2:	bf00      	nop

080003e4 <__aeabi_ui2d>:
 80003e4:	f090 0f00 	teq	r0, #0
 80003e8:	bf04      	itt	eq
 80003ea:	2100      	moveq	r1, #0
 80003ec:	4770      	bxeq	lr
 80003ee:	b530      	push	{r4, r5, lr}
 80003f0:	f44f 6480 	mov.w	r4, #1024	; 0x400
 80003f4:	f104 0432 	add.w	r4, r4, #50	; 0x32
 80003f8:	f04f 0500 	mov.w	r5, #0
 80003fc:	f04f 0100 	mov.w	r1, #0
 8000400:	e750      	b.n	80002a4 <__adddf3+0x138>
 8000402:	bf00      	nop

08000404 <__aeabi_i2d>:
 8000404:	f090 0f00 	teq	r0, #0
 8000408:	bf04      	itt	eq
 800040a:	2100      	moveq	r1, #0
 800040c:	4770      	bxeq	lr
 800040e:	b530      	push	{r4, r5, lr}
 8000410:	f44f 6480 	mov.w	r4, #1024	; 0x400
 8000414:	f104 0432 	add.w	r4, r4, #50	; 0x32
 8000418:	f010 4500 	ands.w	r5, r0, #2147483648	; 0x80000000
 800041c:	bf48      	it	mi
 800041e:	4240      	negmi	r0, r0
 8000420:	f04f 0100 	mov.w	r1, #0
 8000424:	e73e      	b.n	80002a4 <__adddf3+0x138>
 8000426:	bf00      	nop

08000428 <__aeabi_f2d>:
 8000428:	0042      	lsls	r2, r0, #1
 800042a:	ea4f 01e2 	mov.w	r1, r2, asr #3
 800042e:	ea4f 0131 	mov.w	r1, r1, rrx
 8000432:	ea4f 7002 	mov.w	r0, r2, lsl #28
 8000436:	bf1f      	itttt	ne
 8000438:	f012 437f 	andsne.w	r3, r2, #4278190080	; 0xff000000
 800043c:	f093 4f7f 	teqne	r3, #4278190080	; 0xff000000
 8000440:	f081 5160 	eorne.w	r1, r1, #939524096	; 0x38000000
 8000444:	4770      	bxne	lr
 8000446:	f092 0f00 	teq	r2, #0
 800044a:	bf14      	ite	ne
 800044c:	f093 4f7f 	teqne	r3, #4278190080	; 0xff000000
 8000450:	4770      	bxeq	lr
 8000452:	b530      	push	{r4, r5, lr}
 8000454:	f44f 7460 	mov.w	r4, #896	; 0x380
 8000458:	f001 4500 	and.w	r5, r1, #2147483648	; 0x80000000
 800045c:	f021 4100 	bic.w	r1, r1, #2147483648	; 0x80000000
 8000460:	e720      	b.n	80002a4 <__adddf3+0x138>
 8000462:	bf00      	nop

08000464 <__aeabi_ul2d>:
 8000464:	ea50 0201 	orrs.w	r2, r0, r1
 8000468:	bf08      	it	eq
 800046a:	4770      	bxeq	lr
 800046c:	b530      	push	{r4, r5, lr}
 800046e:	f04f 0500 	mov.w	r5, #0
 8000472:	e00a      	b.n	800048a <__aeabi_l2d+0x16>

08000474 <__aeabi_l2d>:
 8000474:	ea50 0201 	orrs.w	r2, r0, r1
 8000478:	bf08      	it	eq
 800047a:	4770      	bxeq	lr
 800047c:	b530      	push	{r4, r5, lr}
 800047e:	f011 4500 	ands.w	r5, r1, #2147483648	; 0x80000000
 8000482:	d502      	bpl.n	800048a <__aeabi_l2d+0x16>
 8000484:	4240      	negs	r0, r0
 8000486:	eb61 0141 	sbc.w	r1, r1, r1, lsl #1
 800048a:	f44f 6480 	mov.w	r4, #1024	; 0x400
 800048e:	f104 0432 	add.w	r4, r4, #50	; 0x32
 8000492:	ea5f 5c91 	movs.w	ip, r1, lsr #22
 8000496:	f43f aedc 	beq.w	8000252 <__adddf3+0xe6>
 800049a:	f04f 0203 	mov.w	r2, #3
 800049e:	ea5f 0cdc 	movs.w	ip, ip, lsr #3
 80004a2:	bf18      	it	ne
 80004a4:	3203      	addne	r2, #3
 80004a6:	ea5f 0cdc 	movs.w	ip, ip, lsr #3
 80004aa:	bf18      	it	ne
 80004ac:	3203      	addne	r2, #3
 80004ae:	eb02 02dc 	add.w	r2, r2, ip, lsr #3
 80004b2:	f1c2 0320 	rsb	r3, r2, #32
 80004b6:	fa00 fc03 	lsl.w	ip, r0, r3
 80004ba:	fa20 f002 	lsr.w	r0, r0, r2
 80004be:	fa01 fe03 	lsl.w	lr, r1, r3
 80004c2:	ea40 000e 	orr.w	r0, r0, lr
 80004c6:	fa21 f102 	lsr.w	r1, r1, r2
 80004ca:	4414      	add	r4, r2
 80004cc:	e6c1      	b.n	8000252 <__adddf3+0xe6>
 80004ce:	bf00      	nop

080004d0 <__aeabi_dmul>:
 80004d0:	b570      	push	{r4, r5, r6, lr}
 80004d2:	f04f 0cff 	mov.w	ip, #255	; 0xff
 80004d6:	f44c 6ce0 	orr.w	ip, ip, #1792	; 0x700
 80004da:	ea1c 5411 	ands.w	r4, ip, r1, lsr #20
 80004de:	bf1d      	ittte	ne
 80004e0:	ea1c 5513 	andsne.w	r5, ip, r3, lsr #20
 80004e4:	ea94 0f0c 	teqne	r4, ip
 80004e8:	ea95 0f0c 	teqne	r5, ip
 80004ec:	f000 f8de 	bleq	80006ac <__aeabi_dmul+0x1dc>
 80004f0:	442c      	add	r4, r5
 80004f2:	ea81 0603 	eor.w	r6, r1, r3
 80004f6:	ea21 514c 	bic.w	r1, r1, ip, lsl #21
 80004fa:	ea23 534c 	bic.w	r3, r3, ip, lsl #21
 80004fe:	ea50 3501 	orrs.w	r5, r0, r1, lsl #12
 8000502:	bf18      	it	ne
 8000504:	ea52 3503 	orrsne.w	r5, r2, r3, lsl #12
 8000508:	f441 1180 	orr.w	r1, r1, #1048576	; 0x100000
 800050c:	f443 1380 	orr.w	r3, r3, #1048576	; 0x100000
 8000510:	d038      	beq.n	8000584 <__aeabi_dmul+0xb4>
 8000512:	fba0 ce02 	umull	ip, lr, r0, r2
 8000516:	f04f 0500 	mov.w	r5, #0
 800051a:	fbe1 e502 	umlal	lr, r5, r1, r2
 800051e:	f006 4200 	and.w	r2, r6, #2147483648	; 0x80000000
 8000522:	fbe0 e503 	umlal	lr, r5, r0, r3
 8000526:	f04f 0600 	mov.w	r6, #0
 800052a:	fbe1 5603 	umlal	r5, r6, r1, r3
 800052e:	f09c 0f00 	teq	ip, #0
 8000532:	bf18      	it	ne
 8000534:	f04e 0e01 	orrne.w	lr, lr, #1
 8000538:	f1a4 04ff 	sub.w	r4, r4, #255	; 0xff
 800053c:	f5b6 7f00 	cmp.w	r6, #512	; 0x200
 8000540:	f564 7440 	sbc.w	r4, r4, #768	; 0x300
 8000544:	d204      	bcs.n	8000550 <__aeabi_dmul+0x80>
 8000546:	ea5f 0e4e 	movs.w	lr, lr, lsl #1
 800054a:	416d      	adcs	r5, r5
 800054c:	eb46 0606 	adc.w	r6, r6, r6
 8000550:	ea42 21c6 	orr.w	r1, r2, r6, lsl #11
 8000554:	ea41 5155 	orr.w	r1, r1, r5, lsr #21
 8000558:	ea4f 20c5 	mov.w	r0, r5, lsl #11
 800055c:	ea40 505e 	orr.w	r0, r0, lr, lsr #21
 8000560:	ea4f 2ece 	mov.w	lr, lr, lsl #11
 8000564:	f1b4 0cfd 	subs.w	ip, r4, #253	; 0xfd
 8000568:	bf88      	it	hi
 800056a:	f5bc 6fe0 	cmphi.w	ip, #1792	; 0x700
 800056e:	d81e      	bhi.n	80005ae <__aeabi_dmul+0xde>
 8000570:	f1be 4f00 	cmp.w	lr, #2147483648	; 0x80000000
 8000574:	bf08      	it	eq
 8000576:	ea5f 0e50 	movseq.w	lr, r0, lsr #1
 800057a:	f150 0000 	adcs.w	r0, r0, #0
 800057e:	eb41 5104 	adc.w	r1, r1, r4, lsl #20
 8000582:	bd70      	pop	{r4, r5, r6, pc}
 8000584:	f006 4600 	and.w	r6, r6, #2147483648	; 0x80000000
 8000588:	ea46 0101 	orr.w	r1, r6, r1
 800058c:	ea40 0002 	orr.w	r0, r0, r2
 8000590:	ea81 0103 	eor.w	r1, r1, r3
 8000594:	ebb4 045c 	subs.w	r4, r4, ip, lsr #1
 8000598:	bfc2      	ittt	gt
 800059a:	ebd4 050c 	rsbsgt	r5, r4, ip
 800059e:	ea41 5104 	orrgt.w	r1, r1, r4, lsl #20
 80005a2:	bd70      	popgt	{r4, r5, r6, pc}
 80005a4:	f441 1180 	orr.w	r1, r1, #1048576	; 0x100000
 80005a8:	f04f 0e00 	mov.w	lr, #0
 80005ac:	3c01      	subs	r4, #1
 80005ae:	f300 80ab 	bgt.w	8000708 <__aeabi_dmul+0x238>
 80005b2:	f114 0f36 	cmn.w	r4, #54	; 0x36
 80005b6:	bfde      	ittt	le
 80005b8:	2000      	movle	r0, #0
 80005ba:	f001 4100 	andle.w	r1, r1, #2147483648	; 0x80000000
 80005be:	bd70      	pople	{r4, r5, r6, pc}
 80005c0:	f1c4 0400 	rsb	r4, r4, #0
 80005c4:	3c20      	subs	r4, #32
 80005c6:	da35      	bge.n	8000634 <__aeabi_dmul+0x164>
 80005c8:	340c      	adds	r4, #12
 80005ca:	dc1b      	bgt.n	8000604 <__aeabi_dmul+0x134>
 80005cc:	f104 0414 	add.w	r4, r4, #20
 80005d0:	f1c4 0520 	rsb	r5, r4, #32
 80005d4:	fa00 f305 	lsl.w	r3, r0, r5
 80005d8:	fa20 f004 	lsr.w	r0, r0, r4
 80005dc:	fa01 f205 	lsl.w	r2, r1, r5
 80005e0:	ea40 0002 	orr.w	r0, r0, r2
 80005e4:	f001 4200 	and.w	r2, r1, #2147483648	; 0x80000000
 80005e8:	f021 4100 	bic.w	r1, r1, #2147483648	; 0x80000000
 80005ec:	eb10 70d3 	adds.w	r0, r0, r3, lsr #31
 80005f0:	fa21 f604 	lsr.w	r6, r1, r4
 80005f4:	eb42 0106 	adc.w	r1, r2, r6
 80005f8:	ea5e 0e43 	orrs.w	lr, lr, r3, lsl #1
 80005fc:	bf08      	it	eq
 80005fe:	ea20 70d3 	biceq.w	r0, r0, r3, lsr #31
 8000602:	bd70      	pop	{r4, r5, r6, pc}
 8000604:	f1c4 040c 	rsb	r4, r4, #12
 8000608:	f1c4 0520 	rsb	r5, r4, #32
 800060c:	fa00 f304 	lsl.w	r3, r0, r4
 8000610:	fa20 f005 	lsr.w	r0, r0, r5
 8000614:	fa01 f204 	lsl.w	r2, r1, r4
 8000618:	ea40 0002 	orr.w	r0, r0, r2
 800061c:	f001 4100 	and.w	r1, r1, #2147483648	; 0x80000000
 8000620:	eb10 70d3 	adds.w	r0, r0, r3, lsr #31
 8000624:	f141 0100 	adc.w	r1, r1, #0
 8000628:	ea5e 0e43 	orrs.w	lr, lr, r3, lsl #1
 800062c:	bf08      	it	eq
 800062e:	ea20 70d3 	biceq.w	r0, r0, r3, lsr #31
 8000632:	bd70      	pop	{r4, r5, r6, pc}
 8000634:	f1c4 0520 	rsb	r5, r4, #32
 8000638:	fa00 f205 	lsl.w	r2, r0, r5
 800063c:	ea4e 0e02 	orr.w	lr, lr, r2
 8000640:	fa20 f304 	lsr.w	r3, r0, r4
 8000644:	fa01 f205 	lsl.w	r2, r1, r5
 8000648:	ea43 0302 	orr.w	r3, r3, r2
 800064c:	fa21 f004 	lsr.w	r0, r1, r4
 8000650:	f001 4100 	and.w	r1, r1, #2147483648	; 0x80000000
 8000654:	fa21 f204 	lsr.w	r2, r1, r4
 8000658:	ea20 0002 	bic.w	r0, r0, r2
 800065c:	eb00 70d3 	add.w	r0, r0, r3, lsr #31
 8000660:	ea5e 0e43 	orrs.w	lr, lr, r3, lsl #1
 8000664:	bf08      	it	eq
 8000666:	ea20 70d3 	biceq.w	r0, r0, r3, lsr #31
 800066a:	bd70      	pop	{r4, r5, r6, pc}
 800066c:	f094 0f00 	teq	r4, #0
 8000670:	d10f      	bne.n	8000692 <__aeabi_dmul+0x1c2>
 8000672:	f001 4600 	and.w	r6, r1, #2147483648	; 0x80000000
 8000676:	0040      	lsls	r0, r0, #1
 8000678:	eb41 0101 	adc.w	r1, r1, r1
 800067c:	f411 1f80 	tst.w	r1, #1048576	; 0x100000
 8000680:	bf08      	it	eq
 8000682:	3c01      	subeq	r4, #1
 8000684:	d0f7      	beq.n	8000676 <__aeabi_dmul+0x1a6>
 8000686:	ea41 0106 	orr.w	r1, r1, r6
 800068a:	f095 0f00 	teq	r5, #0
 800068e:	bf18      	it	ne
 8000690:	4770      	bxne	lr
 8000692:	f003 4600 	and.w	r6, r3, #2147483648	; 0x80000000
 8000696:	0052      	lsls	r2, r2, #1
 8000698:	eb43 0303 	adc.w	r3, r3, r3
 800069c:	f413 1f80 	tst.w	r3, #1048576	; 0x100000
 80006a0:	bf08      	it	eq
 80006a2:	3d01      	subeq	r5, #1
 80006a4:	d0f7      	beq.n	8000696 <__aeabi_dmul+0x1c6>
 80006a6:	ea43 0306 	orr.w	r3, r3, r6
 80006aa:	4770      	bx	lr
 80006ac:	ea94 0f0c 	teq	r4, ip
 80006b0:	ea0c 5513 	and.w	r5, ip, r3, lsr #20
 80006b4:	bf18      	it	ne
 80006b6:	ea95 0f0c 	teqne	r5, ip
 80006ba:	d00c      	beq.n	80006d6 <__aeabi_dmul+0x206>
 80006bc:	ea50 0641 	orrs.w	r6, r0, r1, lsl #1
 80006c0:	bf18      	it	ne
 80006c2:	ea52 0643 	orrsne.w	r6, r2, r3, lsl #1
 80006c6:	d1d1      	bne.n	800066c <__aeabi_dmul+0x19c>
 80006c8:	ea81 0103 	eor.w	r1, r1, r3
 80006cc:	f001 4100 	and.w	r1, r1, #2147483648	; 0x80000000
 80006d0:	f04f 0000 	mov.w	r0, #0
 80006d4:	bd70      	pop	{r4, r5, r6, pc}
 80006d6:	ea50 0641 	orrs.w	r6, r0, r1, lsl #1
 80006da:	bf06      	itte	eq
 80006dc:	4610      	moveq	r0, r2
 80006de:	4619      	moveq	r1, r3
 80006e0:	ea52 0643 	orrsne.w	r6, r2, r3, lsl #1
 80006e4:	d019      	beq.n	800071a <__aeabi_dmul+0x24a>
 80006e6:	ea94 0f0c 	teq	r4, ip
 80006ea:	d102      	bne.n	80006f2 <__aeabi_dmul+0x222>
 80006ec:	ea50 3601 	orrs.w	r6, r0, r1, lsl #12
 80006f0:	d113      	bne.n	800071a <__aeabi_dmul+0x24a>
 80006f2:	ea95 0f0c 	teq	r5, ip
 80006f6:	d105      	bne.n	8000704 <__aeabi_dmul+0x234>
 80006f8:	ea52 3603 	orrs.w	r6, r2, r3, lsl #12
 80006fc:	bf1c      	itt	ne
 80006fe:	4610      	movne	r0, r2
 8000700:	4619      	movne	r1, r3
 8000702:	d10a      	bne.n	800071a <__aeabi_dmul+0x24a>
 8000704:	ea81 0103 	eor.w	r1, r1, r3
 8000708:	f001 4100 	and.w	r1, r1, #2147483648	; 0x80000000
 800070c:	f041 41fe 	orr.w	r1, r1, #2130706432	; 0x7f000000
 8000710:	f441 0170 	orr.w	r1, r1, #15728640	; 0xf00000
 8000714:	f04f 0000 	mov.w	r0, #0
 8000718:	bd70      	pop	{r4, r5, r6, pc}
 800071a:	f041 41fe 	orr.w	r1, r1, #2130706432	; 0x7f000000
 800071e:	f441 0178 	orr.w	r1, r1, #16252928	; 0xf80000
 8000722:	bd70      	pop	{r4, r5, r6, pc}

08000724 <__aeabi_ddiv>:
 8000724:	b570      	push	{r4, r5, r6, lr}
 8000726:	f04f 0cff 	mov.w	ip, #255	; 0xff
 800072a:	f44c 6ce0 	orr.w	ip, ip, #1792	; 0x700
 800072e:	ea1c 5411 	ands.w	r4, ip, r1, lsr #20
 8000732:	bf1d      	ittte	ne
 8000734:	ea1c 5513 	andsne.w	r5, ip, r3, lsr #20
 8000738:	ea94 0f0c 	teqne	r4, ip
 800073c:	ea95 0f0c 	teqne	r5, ip
 8000740:	f000 f8a7 	bleq	8000892 <__aeabi_ddiv+0x16e>
 8000744:	eba4 0405 	sub.w	r4, r4, r5
 8000748:	ea81 0e03 	eor.w	lr, r1, r3
 800074c:	ea52 3503 	orrs.w	r5, r2, r3, lsl #12
 8000750:	ea4f 3101 	mov.w	r1, r1, lsl #12
 8000754:	f000 8088 	beq.w	8000868 <__aeabi_ddiv+0x144>
 8000758:	ea4f 3303 	mov.w	r3, r3, lsl #12
 800075c:	f04f 5580 	mov.w	r5, #268435456	; 0x10000000
 8000760:	ea45 1313 	orr.w	r3, r5, r3, lsr #4
 8000764:	ea43 6312 	orr.w	r3, r3, r2, lsr #24
 8000768:	ea4f 2202 	mov.w	r2, r2, lsl #8
 800076c:	ea45 1511 	orr.w	r5, r5, r1, lsr #4
 8000770:	ea45 6510 	orr.w	r5, r5, r0, lsr #24
 8000774:	ea4f 2600 	mov.w	r6, r0, lsl #8
 8000778:	f00e 4100 	and.w	r1, lr, #2147483648	; 0x80000000
 800077c:	429d      	cmp	r5, r3
 800077e:	bf08      	it	eq
 8000780:	4296      	cmpeq	r6, r2
 8000782:	f144 04fd 	adc.w	r4, r4, #253	; 0xfd
 8000786:	f504 7440 	add.w	r4, r4, #768	; 0x300
 800078a:	d202      	bcs.n	8000792 <__aeabi_ddiv+0x6e>
 800078c:	085b      	lsrs	r3, r3, #1
 800078e:	ea4f 0232 	mov.w	r2, r2, rrx
 8000792:	1ab6      	subs	r6, r6, r2
 8000794:	eb65 0503 	sbc.w	r5, r5, r3
 8000798:	085b      	lsrs	r3, r3, #1
 800079a:	ea4f 0232 	mov.w	r2, r2, rrx
 800079e:	f44f 1080 	mov.w	r0, #1048576	; 0x100000
 80007a2:	f44f 2c00 	mov.w	ip, #524288	; 0x80000
 80007a6:	ebb6 0e02 	subs.w	lr, r6, r2
 80007aa:	eb75 0e03 	sbcs.w	lr, r5, r3
 80007ae:	bf22      	ittt	cs
 80007b0:	1ab6      	subcs	r6, r6, r2
 80007b2:	4675      	movcs	r5, lr
 80007b4:	ea40 000c 	orrcs.w	r0, r0, ip
 80007b8:	085b      	lsrs	r3, r3, #1
 80007ba:	ea4f 0232 	mov.w	r2, r2, rrx
 80007be:	ebb6 0e02 	subs.w	lr, r6, r2
 80007c2:	eb75 0e03 	sbcs.w	lr, r5, r3
 80007c6:	bf22      	ittt	cs
 80007c8:	1ab6      	subcs	r6, r6, r2
 80007ca:	4675      	movcs	r5, lr
 80007cc:	ea40 005c 	orrcs.w	r0, r0, ip, lsr #1
 80007d0:	085b      	lsrs	r3, r3, #1
 80007d2:	ea4f 0232 	mov.w	r2, r2, rrx
 80007d6:	ebb6 0e02 	subs.w	lr, r6, r2
 80007da:	eb75 0e03 	sbcs.w	lr, r5, r3
 80007de:	bf22      	ittt	cs
 80007e0:	1ab6      	subcs	r6, r6, r2
 80007e2:	4675      	movcs	r5, lr
 80007e4:	ea40 009c 	orrcs.w	r0, r0, ip, lsr #2
 80007e8:	085b      	lsrs	r3, r3, #1
 80007ea:	ea4f 0232 	mov.w	r2, r2, rrx
 80007ee:	ebb6 0e02 	subs.w	lr, r6, r2
 80007f2:	eb75 0e03 	sbcs.w	lr, r5, r3
 80007f6:	bf22      	ittt	cs
 80007f8:	1ab6      	subcs	r6, r6, r2
 80007fa:	4675      	movcs	r5, lr
 80007fc:	ea40 00dc 	orrcs.w	r0, r0, ip, lsr #3
 8000800:	ea55 0e06 	orrs.w	lr, r5, r6
 8000804:	d018      	beq.n	8000838 <__aeabi_ddiv+0x114>
 8000806:	ea4f 1505 	mov.w	r5, r5, lsl #4
 800080a:	ea45 7516 	orr.w	r5, r5, r6, lsr #28
 800080e:	ea4f 1606 	mov.w	r6, r6, lsl #4
 8000812:	ea4f 03c3 	mov.w	r3, r3, lsl #3
 8000816:	ea43 7352 	orr.w	r3, r3, r2, lsr #29
 800081a:	ea4f 02c2 	mov.w	r2, r2, lsl #3
 800081e:	ea5f 1c1c 	movs.w	ip, ip, lsr #4
 8000822:	d1c0      	bne.n	80007a6 <__aeabi_ddiv+0x82>
 8000824:	f411 1f80 	tst.w	r1, #1048576	; 0x100000
 8000828:	d10b      	bne.n	8000842 <__aeabi_ddiv+0x11e>
 800082a:	ea41 0100 	orr.w	r1, r1, r0
 800082e:	f04f 0000 	mov.w	r0, #0
 8000832:	f04f 4c00 	mov.w	ip, #2147483648	; 0x80000000
 8000836:	e7b6      	b.n	80007a6 <__aeabi_ddiv+0x82>
 8000838:	f411 1f80 	tst.w	r1, #1048576	; 0x100000
 800083c:	bf04      	itt	eq
 800083e:	4301      	orreq	r1, r0
 8000840:	2000      	moveq	r0, #0
 8000842:	f1b4 0cfd 	subs.w	ip, r4, #253	; 0xfd
 8000846:	bf88      	it	hi
 8000848:	f5bc 6fe0 	cmphi.w	ip, #1792	; 0x700
 800084c:	f63f aeaf 	bhi.w	80005ae <__aeabi_dmul+0xde>
 8000850:	ebb5 0c03 	subs.w	ip, r5, r3
 8000854:	bf04      	itt	eq
 8000856:	ebb6 0c02 	subseq.w	ip, r6, r2
 800085a:	ea5f 0c50 	movseq.w	ip, r0, lsr #1
 800085e:	f150 0000 	adcs.w	r0, r0, #0
 8000862:	eb41 5104 	adc.w	r1, r1, r4, lsl #20
 8000866:	bd70      	pop	{r4, r5, r6, pc}
 8000868:	f00e 4e00 	and.w	lr, lr, #2147483648	; 0x80000000
 800086c:	ea4e 3111 	orr.w	r1, lr, r1, lsr #12
 8000870:	eb14 045c 	adds.w	r4, r4, ip, lsr #1
 8000874:	bfc2      	ittt	gt
 8000876:	ebd4 050c 	rsbsgt	r5, r4, ip
 800087a:	ea41 5104 	orrgt.w	r1, r1, r4, lsl #20
 800087e:	bd70      	popgt	{r4, r5, r6, pc}
 8000880:	f441 1180 	orr.w	r1, r1, #1048576	; 0x100000
 8000884:	f04f 0e00 	mov.w	lr, #0
 8000888:	3c01      	subs	r4, #1
 800088a:	e690      	b.n	80005ae <__aeabi_dmul+0xde>
 800088c:	ea45 0e06 	orr.w	lr, r5, r6
 8000890:	e68d      	b.n	80005ae <__aeabi_dmul+0xde>
 8000892:	ea0c 5513 	and.w	r5, ip, r3, lsr #20
 8000896:	ea94 0f0c 	teq	r4, ip
 800089a:	bf08      	it	eq
 800089c:	ea95 0f0c 	teqeq	r5, ip
 80008a0:	f43f af3b 	beq.w	800071a <__aeabi_dmul+0x24a>
 80008a4:	ea94 0f0c 	teq	r4, ip
 80008a8:	d10a      	bne.n	80008c0 <__aeabi_ddiv+0x19c>
 80008aa:	ea50 3401 	orrs.w	r4, r0, r1, lsl #12
 80008ae:	f47f af34 	bne.w	800071a <__aeabi_dmul+0x24a>
 80008b2:	ea95 0f0c 	teq	r5, ip
 80008b6:	f47f af25 	bne.w	8000704 <__aeabi_dmul+0x234>
 80008ba:	4610      	mov	r0, r2
 80008bc:	4619      	mov	r1, r3
 80008be:	e72c      	b.n	800071a <__aeabi_dmul+0x24a>
 80008c0:	ea95 0f0c 	teq	r5, ip
 80008c4:	d106      	bne.n	80008d4 <__aeabi_ddiv+0x1b0>
 80008c6:	ea52 3503 	orrs.w	r5, r2, r3, lsl #12
 80008ca:	f43f aefd 	beq.w	80006c8 <__aeabi_dmul+0x1f8>
 80008ce:	4610      	mov	r0, r2
 80008d0:	4619      	mov	r1, r3
 80008d2:	e722      	b.n	800071a <__aeabi_dmul+0x24a>
 80008d4:	ea50 0641 	orrs.w	r6, r0, r1, lsl #1
 80008d8:	bf18      	it	ne
 80008da:	ea52 0643 	orrsne.w	r6, r2, r3, lsl #1
 80008de:	f47f aec5 	bne.w	800066c <__aeabi_dmul+0x19c>
 80008e2:	ea50 0441 	orrs.w	r4, r0, r1, lsl #1
 80008e6:	f47f af0d 	bne.w	8000704 <__aeabi_dmul+0x234>
 80008ea:	ea52 0543 	orrs.w	r5, r2, r3, lsl #1
 80008ee:	f47f aeeb 	bne.w	80006c8 <__aeabi_dmul+0x1f8>
 80008f2:	e712      	b.n	800071a <__aeabi_dmul+0x24a>

080008f4 <__gedf2>:
 80008f4:	f04f 3cff 	mov.w	ip, #4294967295	; 0xffffffff
 80008f8:	e006      	b.n	8000908 <__cmpdf2+0x4>
 80008fa:	bf00      	nop

080008fc <__ledf2>:
 80008fc:	f04f 0c01 	mov.w	ip, #1
 8000900:	e002      	b.n	8000908 <__cmpdf2+0x4>
 8000902:	bf00      	nop

08000904 <__cmpdf2>:
 8000904:	f04f 0c01 	mov.w	ip, #1
 8000908:	f84d cd04 	str.w	ip, [sp, #-4]!
 800090c:	ea4f 0c41 	mov.w	ip, r1, lsl #1
 8000910:	ea7f 5c6c 	mvns.w	ip, ip, asr #21
 8000914:	ea4f 0c43 	mov.w	ip, r3, lsl #1
 8000918:	bf18      	it	ne
 800091a:	ea7f 5c6c 	mvnsne.w	ip, ip, asr #21
 800091e:	d01b      	beq.n	8000958 <__cmpdf2+0x54>
 8000920:	b001      	add	sp, #4
 8000922:	ea50 0c41 	orrs.w	ip, r0, r1, lsl #1
 8000926:	bf0c      	ite	eq
 8000928:	ea52 0c43 	orrseq.w	ip, r2, r3, lsl #1
 800092c:	ea91 0f03 	teqne	r1, r3
 8000930:	bf02      	ittt	eq
 8000932:	ea90 0f02 	teqeq	r0, r2
 8000936:	2000      	moveq	r0, #0
 8000938:	4770      	bxeq	lr
 800093a:	f110 0f00 	cmn.w	r0, #0
 800093e:	ea91 0f03 	teq	r1, r3
 8000942:	bf58      	it	pl
 8000944:	4299      	cmppl	r1, r3
 8000946:	bf08      	it	eq
 8000948:	4290      	cmpeq	r0, r2
 800094a:	bf2c      	ite	cs
 800094c:	17d8      	asrcs	r0, r3, #31
 800094e:	ea6f 70e3 	mvncc.w	r0, r3, asr #31
 8000952:	f040 0001 	orr.w	r0, r0, #1
 8000956:	4770      	bx	lr
 8000958:	ea4f 0c41 	mov.w	ip, r1, lsl #1
 800095c:	ea7f 5c6c 	mvns.w	ip, ip, asr #21
 8000960:	d102      	bne.n	8000968 <__cmpdf2+0x64>
 8000962:	ea50 3c01 	orrs.w	ip, r0, r1, lsl #12
 8000966:	d107      	bne.n	8000978 <__cmpdf2+0x74>
 8000968:	ea4f 0c43 	mov.w	ip, r3, lsl #1
 800096c:	ea7f 5c6c 	mvns.w	ip, ip, asr #21
 8000970:	d1d6      	bne.n	8000920 <__cmpdf2+0x1c>
 8000972:	ea52 3c03 	orrs.w	ip, r2, r3, lsl #12
 8000976:	d0d3      	beq.n	8000920 <__cmpdf2+0x1c>
 8000978:	f85d 0b04 	ldr.w	r0, [sp], #4
 800097c:	4770      	bx	lr
 800097e:	bf00      	nop

08000980 <__aeabi_cdrcmple>:
 8000980:	4684      	mov	ip, r0
 8000982:	4610      	mov	r0, r2
 8000984:	4662      	mov	r2, ip
 8000986:	468c      	mov	ip, r1
 8000988:	4619      	mov	r1, r3
 800098a:	4663      	mov	r3, ip
 800098c:	e000      	b.n	8000990 <__aeabi_cdcmpeq>
 800098e:	bf00      	nop

08000990 <__aeabi_cdcmpeq>:
 8000990:	b501      	push	{r0, lr}
 8000992:	f7ff ffb7 	bl	8000904 <__cmpdf2>
 8000996:	2800      	cmp	r0, #0
 8000998:	bf48      	it	mi
 800099a:	f110 0f00 	cmnmi.w	r0, #0
 800099e:	bd01      	pop	{r0, pc}

080009a0 <__aeabi_dcmpeq>:
 80009a0:	f84d ed08 	str.w	lr, [sp, #-8]!
 80009a4:	f7ff fff4 	bl	8000990 <__aeabi_cdcmpeq>
 80009a8:	bf0c      	ite	eq
 80009aa:	2001      	moveq	r0, #1
 80009ac:	2000      	movne	r0, #0
 80009ae:	f85d fb08 	ldr.w	pc, [sp], #8
 80009b2:	bf00      	nop

080009b4 <__aeabi_dcmplt>:
 80009b4:	f84d ed08 	str.w	lr, [sp, #-8]!
 80009b8:	f7ff ffea 	bl	8000990 <__aeabi_cdcmpeq>
 80009bc:	bf34      	ite	cc
 80009be:	2001      	movcc	r0, #1
 80009c0:	2000      	movcs	r0, #0
 80009c2:	f85d fb08 	ldr.w	pc, [sp], #8
 80009c6:	bf00      	nop

080009c8 <__aeabi_dcmple>:
 80009c8:	f84d ed08 	str.w	lr, [sp, #-8]!
 80009cc:	f7ff ffe0 	bl	8000990 <__aeabi_cdcmpeq>
 80009d0:	bf94      	ite	ls
 80009d2:	2001      	movls	r0, #1
 80009d4:	2000      	movhi	r0, #0
 80009d6:	f85d fb08 	ldr.w	pc, [sp], #8
 80009da:	bf00      	nop

080009dc <__aeabi_dcmpge>:
 80009dc:	f84d ed08 	str.w	lr, [sp, #-8]!
 80009e0:	f7ff ffce 	bl	8000980 <__aeabi_cdrcmple>
 80009e4:	bf94      	ite	ls
 80009e6:	2001      	movls	r0, #1
 80009e8:	2000      	movhi	r0, #0
 80009ea:	f85d fb08 	ldr.w	pc, [sp], #8
 80009ee:	bf00      	nop

080009f0 <__aeabi_dcmpgt>:
 80009f0:	f84d ed08 	str.w	lr, [sp, #-8]!
 80009f4:	f7ff ffc4 	bl	8000980 <__aeabi_cdrcmple>
 80009f8:	bf34      	ite	cc
 80009fa:	2001      	movcc	r0, #1
 80009fc:	2000      	movcs	r0, #0
 80009fe:	f85d fb08 	ldr.w	pc, [sp], #8
 8000a02:	bf00      	nop

08000a04 <__aeabi_dcmpun>:
 8000a04:	ea4f 0c41 	mov.w	ip, r1, lsl #1
 8000a08:	ea7f 5c6c 	mvns.w	ip, ip, asr #21
 8000a0c:	d102      	bne.n	8000a14 <__aeabi_dcmpun+0x10>
 8000a0e:	ea50 3c01 	orrs.w	ip, r0, r1, lsl #12
 8000a12:	d10a      	bne.n	8000a2a <__aeabi_dcmpun+0x26>
 8000a14:	ea4f 0c43 	mov.w	ip, r3, lsl #1
 8000a18:	ea7f 5c6c 	mvns.w	ip, ip, asr #21
 8000a1c:	d102      	bne.n	8000a24 <__aeabi_dcmpun+0x20>
 8000a1e:	ea52 3c03 	orrs.w	ip, r2, r3, lsl #12
 8000a22:	d102      	bne.n	8000a2a <__aeabi_dcmpun+0x26>
 8000a24:	f04f 0000 	mov.w	r0, #0
 8000a28:	4770      	bx	lr
 8000a2a:	f04f 0001 	mov.w	r0, #1
 8000a2e:	4770      	bx	lr

08000a30 <__aeabi_d2iz>:
 8000a30:	ea4f 0241 	mov.w	r2, r1, lsl #1
 8000a34:	f512 1200 	adds.w	r2, r2, #2097152	; 0x200000
 8000a38:	d215      	bcs.n	8000a66 <__aeabi_d2iz+0x36>
 8000a3a:	d511      	bpl.n	8000a60 <__aeabi_d2iz+0x30>
 8000a3c:	f46f 7378 	mvn.w	r3, #992	; 0x3e0
 8000a40:	ebb3 5262 	subs.w	r2, r3, r2, asr #21
 8000a44:	d912      	bls.n	8000a6c <__aeabi_d2iz+0x3c>
 8000a46:	ea4f 23c1 	mov.w	r3, r1, lsl #11
 8000a4a:	f043 4300 	orr.w	r3, r3, #2147483648	; 0x80000000
 8000a4e:	ea43 5350 	orr.w	r3, r3, r0, lsr #21
 8000a52:	f011 4f00 	tst.w	r1, #2147483648	; 0x80000000
 8000a56:	fa23 f002 	lsr.w	r0, r3, r2
 8000a5a:	bf18      	it	ne
 8000a5c:	4240      	negne	r0, r0
 8000a5e:	4770      	bx	lr
 8000a60:	f04f 0000 	mov.w	r0, #0
 8000a64:	4770      	bx	lr
 8000a66:	ea50 3001 	orrs.w	r0, r0, r1, lsl #12
 8000a6a:	d105      	bne.n	8000a78 <__aeabi_d2iz+0x48>
 8000a6c:	f011 4000 	ands.w	r0, r1, #2147483648	; 0x80000000
 8000a70:	bf08      	it	eq
 8000a72:	f06f 4000 	mvneq.w	r0, #2147483648	; 0x80000000
 8000a76:	4770      	bx	lr
 8000a78:	f04f 0000 	mov.w	r0, #0
 8000a7c:	4770      	bx	lr
 8000a7e:	bf00      	nop

08000a80 <__aeabi_d2f>:
 8000a80:	ea4f 0241 	mov.w	r2, r1, lsl #1
 8000a84:	f1b2 43e0 	subs.w	r3, r2, #1879048192	; 0x70000000
 8000a88:	bf24      	itt	cs
 8000a8a:	f5b3 1c00 	subscs.w	ip, r3, #2097152	; 0x200000
 8000a8e:	f1dc 5cfe 	rsbscs	ip, ip, #532676608	; 0x1fc00000
 8000a92:	d90d      	bls.n	8000ab0 <__aeabi_d2f+0x30>
 8000a94:	f001 4c00 	and.w	ip, r1, #2147483648	; 0x80000000
 8000a98:	ea4f 02c0 	mov.w	r2, r0, lsl #3
 8000a9c:	ea4c 7050 	orr.w	r0, ip, r0, lsr #29
 8000aa0:	f1b2 4f00 	cmp.w	r2, #2147483648	; 0x80000000
 8000aa4:	eb40 0083 	adc.w	r0, r0, r3, lsl #2
 8000aa8:	bf08      	it	eq
 8000aaa:	f020 0001 	biceq.w	r0, r0, #1
 8000aae:	4770      	bx	lr
 8000ab0:	f011 4f80 	tst.w	r1, #1073741824	; 0x40000000
 8000ab4:	d121      	bne.n	8000afa <__aeabi_d2f+0x7a>
 8000ab6:	f113 7238 	adds.w	r2, r3, #48234496	; 0x2e00000
 8000aba:	bfbc      	itt	lt
 8000abc:	f001 4000 	andlt.w	r0, r1, #2147483648	; 0x80000000
 8000ac0:	4770      	bxlt	lr
 8000ac2:	f441 1180 	orr.w	r1, r1, #1048576	; 0x100000
 8000ac6:	ea4f 5252 	mov.w	r2, r2, lsr #21
 8000aca:	f1c2 0218 	rsb	r2, r2, #24
 8000ace:	f1c2 0c20 	rsb	ip, r2, #32
 8000ad2:	fa10 f30c 	lsls.w	r3, r0, ip
 8000ad6:	fa20 f002 	lsr.w	r0, r0, r2
 8000ada:	bf18      	it	ne
 8000adc:	f040 0001 	orrne.w	r0, r0, #1
 8000ae0:	ea4f 23c1 	mov.w	r3, r1, lsl #11
 8000ae4:	ea4f 23d3 	mov.w	r3, r3, lsr #11
 8000ae8:	fa03 fc0c 	lsl.w	ip, r3, ip
 8000aec:	ea40 000c 	orr.w	r0, r0, ip
 8000af0:	fa23 f302 	lsr.w	r3, r3, r2
 8000af4:	ea4f 0343 	mov.w	r3, r3, lsl #1
 8000af8:	e7cc      	b.n	8000a94 <__aeabi_d2f+0x14>
 8000afa:	ea7f 5362 	mvns.w	r3, r2, asr #21
 8000afe:	d107      	bne.n	8000b10 <__aeabi_d2f+0x90>
 8000b00:	ea50 3301 	orrs.w	r3, r0, r1, lsl #12
 8000b04:	bf1e      	ittt	ne
 8000b06:	f04f 40fe 	movne.w	r0, #2130706432	; 0x7f000000
 8000b0a:	f440 0040 	orrne.w	r0, r0, #12582912	; 0xc00000
 8000b0e:	4770      	bxne	lr
 8000b10:	f001 4000 	and.w	r0, r1, #2147483648	; 0x80000000
 8000b14:	f040 40fe 	orr.w	r0, r0, #2130706432	; 0x7f000000
 8000b18:	f440 0000 	orr.w	r0, r0, #8388608	; 0x800000
 8000b1c:	4770      	bx	lr
 8000b1e:	bf00      	nop

08000b20 <HAL_InitTick>:
  *       implementation  in user file.
  * @param TickPriority Tick interrupt priority.
  * @retval HAL status
  */
__weak HAL_StatusTypeDef HAL_InitTick(uint32_t TickPriority)
{
 8000b20:	b538      	push	{r3, r4, r5, lr}
  /* Configure the SysTick to have interrupt in 1ms time basis*/
  if (HAL_SYSTICK_Config(SystemCoreClock / (1000U / uwTickFreq)) > 0U)
 8000b22:	4b0e      	ldr	r3, [pc, #56]	; (8000b5c <HAL_InitTick+0x3c>)
{
 8000b24:	4605      	mov	r5, r0
  if (HAL_SYSTICK_Config(SystemCoreClock / (1000U / uwTickFreq)) > 0U)
 8000b26:	7818      	ldrb	r0, [r3, #0]
 8000b28:	f44f 737a 	mov.w	r3, #1000	; 0x3e8
 8000b2c:	fbb3 f3f0 	udiv	r3, r3, r0
 8000b30:	4a0b      	ldr	r2, [pc, #44]	; (8000b60 <HAL_InitTick+0x40>)
 8000b32:	6810      	ldr	r0, [r2, #0]
 8000b34:	fbb0 f0f3 	udiv	r0, r0, r3
 8000b38:	f000 f892 	bl	8000c60 <HAL_SYSTICK_Config>
 8000b3c:	4604      	mov	r4, r0
 8000b3e:	b958      	cbnz	r0, 8000b58 <HAL_InitTick+0x38>
  {
    return HAL_ERROR;
  }

  /* Configure the SysTick IRQ priority */
  if (TickPriority < (1UL << __NVIC_PRIO_BITS))
 8000b40:	2d0f      	cmp	r5, #15
 8000b42:	d809      	bhi.n	8000b58 <HAL_InitTick+0x38>
  {
    HAL_NVIC_SetPriority(SysTick_IRQn, TickPriority, 0U);
 8000b44:	4602      	mov	r2, r0
 8000b46:	4629      	mov	r1, r5
 8000b48:	f04f 30ff 	mov.w	r0, #4294967295	; 0xffffffff
 8000b4c:	f000 f854 	bl	8000bf8 <HAL_NVIC_SetPriority>
    uwTickPrio = TickPriority;
 8000b50:	4b04      	ldr	r3, [pc, #16]	; (8000b64 <HAL_InitTick+0x44>)
 8000b52:	4620      	mov	r0, r4
 8000b54:	601d      	str	r5, [r3, #0]
 8000b56:	bd38      	pop	{r3, r4, r5, pc}
    return HAL_ERROR;
 8000b58:	2001      	movs	r0, #1
    return HAL_ERROR;
  }

  /* Return function status */
  return HAL_OK;
}
 8000b5a:	bd38      	pop	{r3, r4, r5, pc}
 8000b5c:	20000000 	.word	0x20000000
 8000b60:	2000000c 	.word	0x2000000c
 8000b64:	20000004 	.word	0x20000004

08000b68 <HAL_Init>:
  __HAL_FLASH_PREFETCH_BUFFER_ENABLE();
 8000b68:	4a07      	ldr	r2, [pc, #28]	; (8000b88 <HAL_Init+0x20>)
{
 8000b6a:	b508      	push	{r3, lr}
  __HAL_FLASH_PREFETCH_BUFFER_ENABLE();
 8000b6c:	6813      	ldr	r3, [r2, #0]
  HAL_NVIC_SetPriorityGrouping(NVIC_PRIORITYGROUP_4);
 8000b6e:	2003      	movs	r0, #3
  __HAL_FLASH_PREFETCH_BUFFER_ENABLE();
 8000b70:	f043 0310 	orr.w	r3, r3, #16
 8000b74:	6013      	str	r3, [r2, #0]
  HAL_NVIC_SetPriorityGrouping(NVIC_PRIORITYGROUP_4);
 8000b76:	f000 f82d 	bl	8000bd4 <HAL_NVIC_SetPriorityGrouping>
  HAL_InitTick(TICK_INT_PRIORITY);
 8000b7a:	2000      	movs	r0, #0
 8000b7c:	f7ff ffd0 	bl	8000b20 <HAL_InitTick>
  HAL_MspInit();
 8000b80:	f000 ff06 	bl	8001990 <HAL_MspInit>
}
 8000b84:	2000      	movs	r0, #0
 8000b86:	bd08      	pop	{r3, pc}
 8000b88:	40022000 	.word	0x40022000

08000b8c <HAL_IncTick>:
  *      implementations in user file.
  * @retval None
  */
__weak void HAL_IncTick(void)
{
  uwTick += uwTickFreq;
 8000b8c:	4a03      	ldr	r2, [pc, #12]	; (8000b9c <HAL_IncTick+0x10>)
 8000b8e:	4b04      	ldr	r3, [pc, #16]	; (8000ba0 <HAL_IncTick+0x14>)
 8000b90:	6811      	ldr	r1, [r2, #0]
 8000b92:	781b      	ldrb	r3, [r3, #0]
 8000b94:	440b      	add	r3, r1
 8000b96:	6013      	str	r3, [r2, #0]
 8000b98:	4770      	bx	lr
 8000b9a:	bf00      	nop
 8000b9c:	20000208 	.word	0x20000208
 8000ba0:	20000000 	.word	0x20000000

08000ba4 <HAL_GetTick>:
  *       implementations in user file.
  * @retval tick value
  */
__weak uint32_t HAL_GetTick(void)
{
  return uwTick;
 8000ba4:	4b01      	ldr	r3, [pc, #4]	; (8000bac <HAL_GetTick+0x8>)
 8000ba6:	6818      	ldr	r0, [r3, #0]
}
 8000ba8:	4770      	bx	lr
 8000baa:	bf00      	nop
 8000bac:	20000208 	.word	0x20000208

08000bb0 <HAL_Delay>:
  *       implementations in user file.
  * @param Delay specifies the delay time length, in milliseconds.
  * @retval None
  */
__weak void HAL_Delay(uint32_t Delay)
{
 8000bb0:	b538      	push	{r3, r4, r5, lr}
 8000bb2:	4604      	mov	r4, r0
  uint32_t tickstart = HAL_GetTick();
 8000bb4:	f7ff fff6 	bl	8000ba4 <HAL_GetTick>
 8000bb8:	4605      	mov	r5, r0
  uint32_t wait = Delay;

  /* Add a freq to guarantee minimum wait */
  if (wait < HAL_MAX_DELAY)
 8000bba:	1c63      	adds	r3, r4, #1
  {
    wait += (uint32_t)(uwTickFreq);
 8000bbc:	bf1e      	ittt	ne
 8000bbe:	4b04      	ldrne	r3, [pc, #16]	; (8000bd0 <HAL_Delay+0x20>)
 8000bc0:	781b      	ldrbne	r3, [r3, #0]
 8000bc2:	18e4      	addne	r4, r4, r3
  }

  while ((HAL_GetTick() - tickstart) < wait)
 8000bc4:	f7ff ffee 	bl	8000ba4 <HAL_GetTick>
 8000bc8:	1b40      	subs	r0, r0, r5
 8000bca:	4284      	cmp	r4, r0
 8000bcc:	d8fa      	bhi.n	8000bc4 <HAL_Delay+0x14>
  {
  }
}
 8000bce:	bd38      	pop	{r3, r4, r5, pc}
 8000bd0:	20000000 	.word	0x20000000

08000bd4 <HAL_NVIC_SetPriorityGrouping>:
__STATIC_INLINE void NVIC_SetPriorityGrouping(uint32_t PriorityGroup)
{
  uint32_t reg_value;
  uint32_t PriorityGroupTmp = (PriorityGroup & (uint32_t)0x07UL);             /* only values 0..7 are used          */

  reg_value  =  SCB->AIRCR;                                                   /* read old register configuration    */
 8000bd4:	4a07      	ldr	r2, [pc, #28]	; (8000bf4 <HAL_NVIC_SetPriorityGrouping+0x20>)
  reg_value &= ~((uint32_t)(SCB_AIRCR_VECTKEY_Msk | SCB_AIRCR_PRIGROUP_Msk)); /* clear bits to change               */
  reg_value  =  (reg_value                                   |
                ((uint32_t)0x5FAUL << SCB_AIRCR_VECTKEY_Pos) |
                (PriorityGroupTmp << 8U)                      );              /* Insert write key and priorty group */
 8000bd6:	0200      	lsls	r0, r0, #8
  reg_value  =  SCB->AIRCR;                                                   /* read old register configuration    */
 8000bd8:	68d3      	ldr	r3, [r2, #12]
                (PriorityGroupTmp << 8U)                      );              /* Insert write key and priorty group */
 8000bda:	f400 60e0 	and.w	r0, r0, #1792	; 0x700
  reg_value &= ~((uint32_t)(SCB_AIRCR_VECTKEY_Msk | SCB_AIRCR_PRIGROUP_Msk)); /* clear bits to change               */
 8000bde:	f423 63e0 	bic.w	r3, r3, #1792	; 0x700
 8000be2:	041b      	lsls	r3, r3, #16
 8000be4:	0c1b      	lsrs	r3, r3, #16
 8000be6:	f043 63bf 	orr.w	r3, r3, #100139008	; 0x5f80000
 8000bea:	f443 3300 	orr.w	r3, r3, #131072	; 0x20000
  reg_value  =  (reg_value                                   |
 8000bee:	4303      	orrs	r3, r0
  SCB->AIRCR =  reg_value;
 8000bf0:	60d3      	str	r3, [r2, #12]
 8000bf2:	4770      	bx	lr
 8000bf4:	e000ed00 	.word	0xe000ed00

08000bf8 <HAL_NVIC_SetPriority>:
  \details Reads the priority grouping field from the NVIC Interrupt Controller.
  \return                Priority grouping field (SCB->AIRCR [10:8] PRIGROUP field).
 */
__STATIC_INLINE uint32_t NVIC_GetPriorityGrouping(void)
{
  return ((uint32_t)((SCB->AIRCR & SCB_AIRCR_PRIGROUP_Msk) >> SCB_AIRCR_PRIGROUP_Pos));
 8000bf8:	4b17      	ldr	r3, [pc, #92]	; (8000c58 <HAL_NVIC_SetPriority+0x60>)
  *         This parameter can be a value between 0 and 15
  *         A lower priority value indicates a higher priority.          
  * @retval None
  */
void HAL_NVIC_SetPriority(IRQn_Type IRQn, uint32_t PreemptPriority, uint32_t SubPriority)
{ 
 8000bfa:	b530      	push	{r4, r5, lr}
 8000bfc:	68dc      	ldr	r4, [r3, #12]
 8000bfe:	f3c4 2402 	ubfx	r4, r4, #8, #3
{
  uint32_t PriorityGroupTmp = (PriorityGroup & (uint32_t)0x07UL);   /* only values 0..7 are used          */
  uint32_t PreemptPriorityBits;
  uint32_t SubPriorityBits;

  PreemptPriorityBits = ((7UL - PriorityGroupTmp) > (uint32_t)(__NVIC_PRIO_BITS)) ? (uint32_t)(__NVIC_PRIO_BITS) : (uint32_t)(7UL - PriorityGroupTmp);
 8000c02:	f1c4 0307 	rsb	r3, r4, #7
  SubPriorityBits     = ((PriorityGroupTmp + (uint32_t)(__NVIC_PRIO_BITS)) < (uint32_t)7UL) ? (uint32_t)0UL : (uint32_t)((PriorityGroupTmp - 7UL) + (uint32_t)(__NVIC_PRIO_BITS));
 8000c06:	1d25      	adds	r5, r4, #4
  PreemptPriorityBits = ((7UL - PriorityGroupTmp) > (uint32_t)(__NVIC_PRIO_BITS)) ? (uint32_t)(__NVIC_PRIO_BITS) : (uint32_t)(7UL - PriorityGroupTmp);
 8000c08:	2b04      	cmp	r3, #4
 8000c0a:	bf28      	it	cs
 8000c0c:	2304      	movcs	r3, #4
  SubPriorityBits     = ((PriorityGroupTmp + (uint32_t)(__NVIC_PRIO_BITS)) < (uint32_t)7UL) ? (uint32_t)0UL : (uint32_t)((PriorityGroupTmp - 7UL) + (uint32_t)(__NVIC_PRIO_BITS));
 8000c0e:	2d06      	cmp	r5, #6

  return (
           ((PreemptPriority & (uint32_t)((1UL << (PreemptPriorityBits)) - 1UL)) << SubPriorityBits) |
 8000c10:	f04f 0501 	mov.w	r5, #1
  SubPriorityBits     = ((PriorityGroupTmp + (uint32_t)(__NVIC_PRIO_BITS)) < (uint32_t)7UL) ? (uint32_t)0UL : (uint32_t)((PriorityGroupTmp - 7UL) + (uint32_t)(__NVIC_PRIO_BITS));
 8000c14:	bf98      	it	ls
 8000c16:	2400      	movls	r4, #0
           ((PreemptPriority & (uint32_t)((1UL << (PreemptPriorityBits)) - 1UL)) << SubPriorityBits) |
 8000c18:	fa05 f303 	lsl.w	r3, r5, r3
 8000c1c:	f103 33ff 	add.w	r3, r3, #4294967295	; 0xffffffff
  SubPriorityBits     = ((PriorityGroupTmp + (uint32_t)(__NVIC_PRIO_BITS)) < (uint32_t)7UL) ? (uint32_t)0UL : (uint32_t)((PriorityGroupTmp - 7UL) + (uint32_t)(__NVIC_PRIO_BITS));
 8000c20:	bf88      	it	hi
 8000c22:	3c03      	subhi	r4, #3
           ((PreemptPriority & (uint32_t)((1UL << (PreemptPriorityBits)) - 1UL)) << SubPriorityBits) |
 8000c24:	4019      	ands	r1, r3
 8000c26:	40a1      	lsls	r1, r4
           ((SubPriority     & (uint32_t)((1UL << (SubPriorityBits    )) - 1UL)))
 8000c28:	fa05 f404 	lsl.w	r4, r5, r4
 8000c2c:	3c01      	subs	r4, #1
 8000c2e:	4022      	ands	r2, r4
  if ((int32_t)(IRQn) < 0)
 8000c30:	2800      	cmp	r0, #0
           ((PreemptPriority & (uint32_t)((1UL << (PreemptPriorityBits)) - 1UL)) << SubPriorityBits) |
 8000c32:	ea42 0201 	orr.w	r2, r2, r1
 8000c36:	ea4f 1202 	mov.w	r2, r2, lsl #4
    NVIC->IP[((uint32_t)(int32_t)IRQn)]               = (uint8_t)((priority << (8U - __NVIC_PRIO_BITS)) & (uint32_t)0xFFUL);
 8000c3a:	bfaf      	iteee	ge
 8000c3c:	f100 4060 	addge.w	r0, r0, #3758096384	; 0xe0000000
    SCB->SHP[(((uint32_t)(int32_t)IRQn) & 0xFUL)-4UL] = (uint8_t)((priority << (8U - __NVIC_PRIO_BITS)) & (uint32_t)0xFFUL);
 8000c40:	4b06      	ldrlt	r3, [pc, #24]	; (8000c5c <HAL_NVIC_SetPriority+0x64>)
 8000c42:	f000 000f 	andlt.w	r0, r0, #15
 8000c46:	b2d2      	uxtblt	r2, r2
    NVIC->IP[((uint32_t)(int32_t)IRQn)]               = (uint8_t)((priority << (8U - __NVIC_PRIO_BITS)) & (uint32_t)0xFFUL);
 8000c48:	bfa5      	ittet	ge
 8000c4a:	b2d2      	uxtbge	r2, r2
 8000c4c:	f500 4061 	addge.w	r0, r0, #57600	; 0xe100
    SCB->SHP[(((uint32_t)(int32_t)IRQn) & 0xFUL)-4UL] = (uint8_t)((priority << (8U - __NVIC_PRIO_BITS)) & (uint32_t)0xFFUL);
 8000c50:	541a      	strblt	r2, [r3, r0]
    NVIC->IP[((uint32_t)(int32_t)IRQn)]               = (uint8_t)((priority << (8U - __NVIC_PRIO_BITS)) & (uint32_t)0xFFUL);
 8000c52:	f880 2300 	strbge.w	r2, [r0, #768]	; 0x300
 8000c56:	bd30      	pop	{r4, r5, pc}
 8000c58:	e000ed00 	.word	0xe000ed00
 8000c5c:	e000ed14 	.word	0xe000ed14

08000c60 <HAL_SYSTICK_Config>:
           function <b>SysTick_Config</b> is not included. In this case, the file <b><i>device</i>.h</b>
           must contain a vendor-specific implementation of this function.
 */
__STATIC_INLINE uint32_t SysTick_Config(uint32_t ticks)
{
  if ((ticks - 1UL) > SysTick_LOAD_RELOAD_Msk)
 8000c60:	3801      	subs	r0, #1
 8000c62:	f1b0 7f80 	cmp.w	r0, #16777216	; 0x1000000
 8000c66:	d20a      	bcs.n	8000c7e <HAL_SYSTICK_Config+0x1e>
    SCB->SHP[(((uint32_t)(int32_t)IRQn) & 0xFUL)-4UL] = (uint8_t)((priority << (8U - __NVIC_PRIO_BITS)) & (uint32_t)0xFFUL);
 8000c68:	21f0      	movs	r1, #240	; 0xf0
  {
    return (1UL);                                                   /* Reload value impossible */
  }

  SysTick->LOAD  = (uint32_t)(ticks - 1UL);                         /* set reload register */
 8000c6a:	4b06      	ldr	r3, [pc, #24]	; (8000c84 <HAL_SYSTICK_Config+0x24>)
    SCB->SHP[(((uint32_t)(int32_t)IRQn) & 0xFUL)-4UL] = (uint8_t)((priority << (8U - __NVIC_PRIO_BITS)) & (uint32_t)0xFFUL);
 8000c6c:	4a06      	ldr	r2, [pc, #24]	; (8000c88 <HAL_SYSTICK_Config+0x28>)
  SysTick->LOAD  = (uint32_t)(ticks - 1UL);                         /* set reload register */
 8000c6e:	6058      	str	r0, [r3, #4]
    SCB->SHP[(((uint32_t)(int32_t)IRQn) & 0xFUL)-4UL] = (uint8_t)((priority << (8U - __NVIC_PRIO_BITS)) & (uint32_t)0xFFUL);
 8000c70:	f882 1023 	strb.w	r1, [r2, #35]	; 0x23
  NVIC_SetPriority (SysTick_IRQn, (1UL << __NVIC_PRIO_BITS) - 1UL); /* set Priority for Systick Interrupt */
  SysTick->VAL   = 0UL;                                             /* Load the SysTick Counter Value */
 8000c74:	2000      	movs	r0, #0
  SysTick->CTRL  = SysTick_CTRL_CLKSOURCE_Msk |
 8000c76:	2207      	movs	r2, #7
  SysTick->VAL   = 0UL;                                             /* Load the SysTick Counter Value */
 8000c78:	6098      	str	r0, [r3, #8]
  SysTick->CTRL  = SysTick_CTRL_CLKSOURCE_Msk |
 8000c7a:	601a      	str	r2, [r3, #0]
 8000c7c:	4770      	bx	lr
    return (1UL);                                                   /* Reload value impossible */
 8000c7e:	2001      	movs	r0, #1
  *                  - 1  Function failed.
  */
uint32_t HAL_SYSTICK_Config(uint32_t TicksNumb)
{
   return SysTick_Config(TicksNumb);
}
 8000c80:	4770      	bx	lr
 8000c82:	bf00      	nop
 8000c84:	e000e010 	.word	0xe000e010
 8000c88:	e000ed00 	.word	0xe000ed00

08000c8c <HAL_GPIO_Init>:
  * @param  GPIO_Init: pointer to a GPIO_InitTypeDef structure that contains
  *         the configuration information for the specified GPIO peripheral.
  * @retval None
  */
void HAL_GPIO_Init(GPIO_TypeDef  *GPIOx, GPIO_InitTypeDef *GPIO_Init)
{
 8000c8c:	e92d 4ff7 	stmdb	sp!, {r0, r1, r2, r4, r5, r6, r7, r8, r9, sl, fp, lr}
  uint32_t position;
  uint32_t ioposition = 0x00U;
  uint32_t iocurrent = 0x00U;
  uint32_t temp = 0x00U;
  uint32_t config = 0x00U;
 8000c90:	2200      	movs	r2, #0
  assert_param(IS_GPIO_ALL_INSTANCE(GPIOx));
  assert_param(IS_GPIO_PIN(GPIO_Init->Pin));
  assert_param(IS_GPIO_MODE(GPIO_Init->Mode));

  /* Configure the port pins */
  for (position = 0U; position < GPIO_NUMBER; position++)
 8000c92:	4616      	mov	r6, r2
 8000c94:	4b65      	ldr	r3, [pc, #404]	; (8000e2c <HAL_GPIO_Init+0x1a0>)
    {
      /* Check the Alternate function parameters */
      assert_param(IS_GPIO_AF_INSTANCE(GPIOx));

      /* Based on the required mode, filling config variable with MODEy[1:0] and CNFy[3:2] corresponding bits */
      switch (GPIO_Init->Mode)
 8000c96:	f8df e1a4 	ldr.w	lr, [pc, #420]	; 8000e3c <HAL_GPIO_Init+0x1b0>
 8000c9a:	f8df c1a4 	ldr.w	ip, [pc, #420]	; 8000e40 <HAL_GPIO_Init+0x1b4>
    ioposition = (0x01U << position);
 8000c9e:	f04f 0801 	mov.w	r8, #1
    iocurrent = (uint32_t)(GPIO_Init->Pin) & ioposition;
 8000ca2:	680c      	ldr	r4, [r1, #0]
    ioposition = (0x01U << position);
 8000ca4:	fa08 f806 	lsl.w	r8, r8, r6
    iocurrent = (uint32_t)(GPIO_Init->Pin) & ioposition;
 8000ca8:	ea08 0404 	and.w	r4, r8, r4
    if (iocurrent == ioposition)
 8000cac:	45a0      	cmp	r8, r4
 8000cae:	d17f      	bne.n	8000db0 <HAL_GPIO_Init+0x124>
      switch (GPIO_Init->Mode)
 8000cb0:	684d      	ldr	r5, [r1, #4]
 8000cb2:	2d12      	cmp	r5, #18
 8000cb4:	f000 80af 	beq.w	8000e16 <HAL_GPIO_Init+0x18a>
 8000cb8:	f200 8088 	bhi.w	8000dcc <HAL_GPIO_Init+0x140>
 8000cbc:	2d02      	cmp	r5, #2
 8000cbe:	f000 80a7 	beq.w	8000e10 <HAL_GPIO_Init+0x184>
 8000cc2:	d87c      	bhi.n	8000dbe <HAL_GPIO_Init+0x132>
 8000cc4:	2d00      	cmp	r5, #0
 8000cc6:	f000 808e 	beq.w	8000de6 <HAL_GPIO_Init+0x15a>
 8000cca:	2d01      	cmp	r5, #1
 8000ccc:	f000 809e 	beq.w	8000e0c <HAL_GPIO_Init+0x180>
       in order to address CRH or CRL register*/
      configregister = (iocurrent < GPIO_PIN_8) ? &GPIOx->CRL     : &GPIOx->CRH;
      registeroffset = (iocurrent < GPIO_PIN_8) ? (position << 2U) : ((position - 8U) << 2U);

      /* Apply the new configuration of the pin to the register */
      MODIFY_REG((*configregister), ((GPIO_CRL_MODE0 | GPIO_CRL_CNF0) << registeroffset), (config << registeroffset));
 8000cd0:	f04f 090f 	mov.w	r9, #15
      configregister = (iocurrent < GPIO_PIN_8) ? &GPIOx->CRL     : &GPIOx->CRH;
 8000cd4:	2cff      	cmp	r4, #255	; 0xff
 8000cd6:	bf93      	iteet	ls
 8000cd8:	4682      	movls	sl, r0
 8000cda:	f106 4580 	addhi.w	r5, r6, #1073741824	; 0x40000000
 8000cde:	3d08      	subhi	r5, #8
 8000ce0:	f8d0 b000 	ldrls.w	fp, [r0]
 8000ce4:	bf92      	itee	ls
 8000ce6:	00b5      	lslls	r5, r6, #2
 8000ce8:	f8d0 b004 	ldrhi.w	fp, [r0, #4]
 8000cec:	00ad      	lslhi	r5, r5, #2
      MODIFY_REG((*configregister), ((GPIO_CRL_MODE0 | GPIO_CRL_CNF0) << registeroffset), (config << registeroffset));
 8000cee:	fa09 f805 	lsl.w	r8, r9, r5
 8000cf2:	ea2b 0808 	bic.w	r8, fp, r8
 8000cf6:	fa02 f505 	lsl.w	r5, r2, r5
      configregister = (iocurrent < GPIO_PIN_8) ? &GPIOx->CRL     : &GPIOx->CRH;
 8000cfa:	bf88      	it	hi
 8000cfc:	f100 0a04 	addhi.w	sl, r0, #4
      MODIFY_REG((*configregister), ((GPIO_CRL_MODE0 | GPIO_CRL_CNF0) << registeroffset), (config << registeroffset));
 8000d00:	ea48 0505 	orr.w	r5, r8, r5
 8000d04:	f8ca 5000 	str.w	r5, [sl]

      /*--------------------- EXTI Mode Configuration ------------------------*/
      /* Configure the External Interrupt or event for the current IO */
      if ((GPIO_Init->Mode & EXTI_MODE) == EXTI_MODE)
 8000d08:	f8d1 a004 	ldr.w	sl, [r1, #4]
 8000d0c:	f01a 5f80 	tst.w	sl, #268435456	; 0x10000000
 8000d10:	d04e      	beq.n	8000db0 <HAL_GPIO_Init+0x124>
      {
        /* Enable AFIO Clock */
        __HAL_RCC_AFIO_CLK_ENABLE();
 8000d12:	4d47      	ldr	r5, [pc, #284]	; (8000e30 <HAL_GPIO_Init+0x1a4>)
 8000d14:	4f46      	ldr	r7, [pc, #280]	; (8000e30 <HAL_GPIO_Init+0x1a4>)
 8000d16:	69ad      	ldr	r5, [r5, #24]
 8000d18:	f026 0803 	bic.w	r8, r6, #3
 8000d1c:	f045 0501 	orr.w	r5, r5, #1
 8000d20:	61bd      	str	r5, [r7, #24]
 8000d22:	69bd      	ldr	r5, [r7, #24]
 8000d24:	f108 4880 	add.w	r8, r8, #1073741824	; 0x40000000
 8000d28:	f005 0501 	and.w	r5, r5, #1
 8000d2c:	9501      	str	r5, [sp, #4]
 8000d2e:	f508 3880 	add.w	r8, r8, #65536	; 0x10000
        temp = AFIO->EXTICR[position >> 2U];
        CLEAR_BIT(temp, (0x0FU) << (4U * (position & 0x03U)));
 8000d32:	f006 0b03 	and.w	fp, r6, #3
        __HAL_RCC_AFIO_CLK_ENABLE();
 8000d36:	9d01      	ldr	r5, [sp, #4]
        CLEAR_BIT(temp, (0x0FU) << (4U * (position & 0x03U)));
 8000d38:	ea4f 0b8b 	mov.w	fp, fp, lsl #2
        temp = AFIO->EXTICR[position >> 2U];
 8000d3c:	f8d8 5008 	ldr.w	r5, [r8, #8]
        CLEAR_BIT(temp, (0x0FU) << (4U * (position & 0x03U)));
 8000d40:	fa09 f90b 	lsl.w	r9, r9, fp
 8000d44:	ea25 0909 	bic.w	r9, r5, r9
        SET_BIT(temp, (GPIO_GET_INDEX(GPIOx)) << (4U * (position & 0x03U)));
 8000d48:	4d3a      	ldr	r5, [pc, #232]	; (8000e34 <HAL_GPIO_Init+0x1a8>)
 8000d4a:	42a8      	cmp	r0, r5
 8000d4c:	d068      	beq.n	8000e20 <HAL_GPIO_Init+0x194>
 8000d4e:	f505 6580 	add.w	r5, r5, #1024	; 0x400
 8000d52:	42a8      	cmp	r0, r5
 8000d54:	d066      	beq.n	8000e24 <HAL_GPIO_Init+0x198>
 8000d56:	f505 6580 	add.w	r5, r5, #1024	; 0x400
 8000d5a:	42a8      	cmp	r0, r5
 8000d5c:	d064      	beq.n	8000e28 <HAL_GPIO_Init+0x19c>
 8000d5e:	f505 6580 	add.w	r5, r5, #1024	; 0x400
 8000d62:	42a8      	cmp	r0, r5
 8000d64:	bf0c      	ite	eq
 8000d66:	2503      	moveq	r5, #3
 8000d68:	2504      	movne	r5, #4
 8000d6a:	fa05 f50b 	lsl.w	r5, r5, fp
 8000d6e:	ea45 0509 	orr.w	r5, r5, r9
        AFIO->EXTICR[position >> 2U] = temp;
 8000d72:	f8c8 5008 	str.w	r5, [r8, #8]


        /* Configure the interrupt mask */
        if ((GPIO_Init->Mode & GPIO_MODE_IT) == GPIO_MODE_IT)
        {
          SET_BIT(EXTI->IMR, iocurrent);
 8000d76:	681d      	ldr	r5, [r3, #0]
        if ((GPIO_Init->Mode & GPIO_MODE_IT) == GPIO_MODE_IT)
 8000d78:	f41a 3f80 	tst.w	sl, #65536	; 0x10000
          SET_BIT(EXTI->IMR, iocurrent);
 8000d7c:	bf14      	ite	ne
 8000d7e:	4325      	orrne	r5, r4
        }
        else
        {
          CLEAR_BIT(EXTI->IMR, iocurrent);
 8000d80:	43a5      	biceq	r5, r4
 8000d82:	601d      	str	r5, [r3, #0]
        }

        /* Configure the event mask */
        if ((GPIO_Init->Mode & GPIO_MODE_EVT) == GPIO_MODE_EVT)
        {
          SET_BIT(EXTI->EMR, iocurrent);
 8000d84:	685d      	ldr	r5, [r3, #4]
        if ((GPIO_Init->Mode & GPIO_MODE_EVT) == GPIO_MODE_EVT)
 8000d86:	f41a 3f00 	tst.w	sl, #131072	; 0x20000
          SET_BIT(EXTI->EMR, iocurrent);
 8000d8a:	bf14      	ite	ne
 8000d8c:	4325      	orrne	r5, r4
        }
        else
        {
          CLEAR_BIT(EXTI->EMR, iocurrent);
 8000d8e:	43a5      	biceq	r5, r4
 8000d90:	605d      	str	r5, [r3, #4]
        }

        /* Enable or disable the rising trigger */
        if ((GPIO_Init->Mode & RISING_EDGE) == RISING_EDGE)
        {
          SET_BIT(EXTI->RTSR, iocurrent);
 8000d92:	689d      	ldr	r5, [r3, #8]
        if ((GPIO_Init->Mode & RISING_EDGE) == RISING_EDGE)
 8000d94:	f41a 1f80 	tst.w	sl, #1048576	; 0x100000
          SET_BIT(EXTI->RTSR, iocurrent);
 8000d98:	bf14      	ite	ne
 8000d9a:	4325      	orrne	r5, r4
        }
        else
        {
          CLEAR_BIT(EXTI->RTSR, iocurrent);
 8000d9c:	43a5      	biceq	r5, r4
 8000d9e:	609d      	str	r5, [r3, #8]
        }

        /* Enable or disable the falling trigger */
        if ((GPIO_Init->Mode & FALLING_EDGE) == FALLING_EDGE)
        {
          SET_BIT(EXTI->FTSR, iocurrent);
 8000da0:	68dd      	ldr	r5, [r3, #12]
        if ((GPIO_Init->Mode & FALLING_EDGE) == FALLING_EDGE)
 8000da2:	f41a 1f00 	tst.w	sl, #2097152	; 0x200000
          SET_BIT(EXTI->FTSR, iocurrent);
 8000da6:	bf14      	ite	ne
 8000da8:	432c      	orrne	r4, r5
        }
        else
        {
          CLEAR_BIT(EXTI->FTSR, iocurrent);
 8000daa:	ea25 0404 	biceq.w	r4, r5, r4
 8000dae:	60dc      	str	r4, [r3, #12]
  for (position = 0U; position < GPIO_NUMBER; position++)
 8000db0:	3601      	adds	r6, #1
 8000db2:	2e10      	cmp	r6, #16
 8000db4:	f47f af73 	bne.w	8000c9e <HAL_GPIO_Init+0x12>
        }
      }
    }
  }
}
 8000db8:	b003      	add	sp, #12
 8000dba:	e8bd 8ff0 	ldmia.w	sp!, {r4, r5, r6, r7, r8, r9, sl, fp, pc}
      switch (GPIO_Init->Mode)
 8000dbe:	2d03      	cmp	r5, #3
 8000dc0:	d022      	beq.n	8000e08 <HAL_GPIO_Init+0x17c>
 8000dc2:	2d11      	cmp	r5, #17
 8000dc4:	d184      	bne.n	8000cd0 <HAL_GPIO_Init+0x44>
          config = GPIO_Init->Speed + GPIO_CR_CNF_GP_OUTPUT_OD;
 8000dc6:	68ca      	ldr	r2, [r1, #12]
 8000dc8:	3204      	adds	r2, #4
          break;
 8000dca:	e781      	b.n	8000cd0 <HAL_GPIO_Init+0x44>
      switch (GPIO_Init->Mode)
 8000dcc:	4f1a      	ldr	r7, [pc, #104]	; (8000e38 <HAL_GPIO_Init+0x1ac>)
 8000dce:	42bd      	cmp	r5, r7
 8000dd0:	d009      	beq.n	8000de6 <HAL_GPIO_Init+0x15a>
 8000dd2:	d812      	bhi.n	8000dfa <HAL_GPIO_Init+0x16e>
 8000dd4:	f8df 906c 	ldr.w	r9, [pc, #108]	; 8000e44 <HAL_GPIO_Init+0x1b8>
 8000dd8:	454d      	cmp	r5, r9
 8000dda:	d004      	beq.n	8000de6 <HAL_GPIO_Init+0x15a>
 8000ddc:	f509 3980 	add.w	r9, r9, #65536	; 0x10000
 8000de0:	454d      	cmp	r5, r9
 8000de2:	f47f af75 	bne.w	8000cd0 <HAL_GPIO_Init+0x44>
          if (GPIO_Init->Pull == GPIO_NOPULL)
 8000de6:	688a      	ldr	r2, [r1, #8]
 8000de8:	b1c2      	cbz	r2, 8000e1c <HAL_GPIO_Init+0x190>
          else if (GPIO_Init->Pull == GPIO_PULLUP)
 8000dea:	2a01      	cmp	r2, #1
            GPIOx->BSRR = ioposition;
 8000dec:	bf0c      	ite	eq
 8000dee:	f8c0 8010 	streq.w	r8, [r0, #16]
            GPIOx->BRR = ioposition;
 8000df2:	f8c0 8014 	strne.w	r8, [r0, #20]
            config = GPIO_CR_MODE_INPUT + GPIO_CR_CNF_INPUT_PU_PD;
 8000df6:	2208      	movs	r2, #8
 8000df8:	e76a      	b.n	8000cd0 <HAL_GPIO_Init+0x44>
      switch (GPIO_Init->Mode)
 8000dfa:	4575      	cmp	r5, lr
 8000dfc:	d0f3      	beq.n	8000de6 <HAL_GPIO_Init+0x15a>
 8000dfe:	4565      	cmp	r5, ip
 8000e00:	d0f1      	beq.n	8000de6 <HAL_GPIO_Init+0x15a>
 8000e02:	f8df 9044 	ldr.w	r9, [pc, #68]	; 8000e48 <HAL_GPIO_Init+0x1bc>
 8000e06:	e7eb      	b.n	8000de0 <HAL_GPIO_Init+0x154>
          config = GPIO_CR_MODE_INPUT + GPIO_CR_CNF_ANALOG;
 8000e08:	2200      	movs	r2, #0
 8000e0a:	e761      	b.n	8000cd0 <HAL_GPIO_Init+0x44>
          config = GPIO_Init->Speed + GPIO_CR_CNF_GP_OUTPUT_PP;
 8000e0c:	68ca      	ldr	r2, [r1, #12]
          break;
 8000e0e:	e75f      	b.n	8000cd0 <HAL_GPIO_Init+0x44>
          config = GPIO_Init->Speed + GPIO_CR_CNF_AF_OUTPUT_PP;
 8000e10:	68ca      	ldr	r2, [r1, #12]
 8000e12:	3208      	adds	r2, #8
          break;
 8000e14:	e75c      	b.n	8000cd0 <HAL_GPIO_Init+0x44>
          config = GPIO_Init->Speed + GPIO_CR_CNF_AF_OUTPUT_OD;
 8000e16:	68ca      	ldr	r2, [r1, #12]
 8000e18:	320c      	adds	r2, #12
          break;
 8000e1a:	e759      	b.n	8000cd0 <HAL_GPIO_Init+0x44>
            config = GPIO_CR_MODE_INPUT + GPIO_CR_CNF_INPUT_FLOATING;
 8000e1c:	2204      	movs	r2, #4
 8000e1e:	e757      	b.n	8000cd0 <HAL_GPIO_Init+0x44>
        SET_BIT(temp, (GPIO_GET_INDEX(GPIOx)) << (4U * (position & 0x03U)));
 8000e20:	2500      	movs	r5, #0
 8000e22:	e7a2      	b.n	8000d6a <HAL_GPIO_Init+0xde>
 8000e24:	2501      	movs	r5, #1
 8000e26:	e7a0      	b.n	8000d6a <HAL_GPIO_Init+0xde>
 8000e28:	2502      	movs	r5, #2
 8000e2a:	e79e      	b.n	8000d6a <HAL_GPIO_Init+0xde>
 8000e2c:	40010400 	.word	0x40010400
 8000e30:	40021000 	.word	0x40021000
 8000e34:	40010800 	.word	0x40010800
 8000e38:	10210000 	.word	0x10210000
 8000e3c:	10310000 	.word	0x10310000
 8000e40:	10320000 	.word	0x10320000
 8000e44:	10110000 	.word	0x10110000
 8000e48:	10220000 	.word	0x10220000

08000e4c <HAL_GPIO_ReadPin>:
  GPIO_PinState bitstatus;

  /* Check the parameters */
  assert_param(IS_GPIO_PIN(GPIO_Pin));

  if ((GPIOx->IDR & GPIO_Pin) != (uint32_t)GPIO_PIN_RESET)
 8000e4c:	6883      	ldr	r3, [r0, #8]
 8000e4e:	4219      	tst	r1, r3
  else
  {
    bitstatus = GPIO_PIN_RESET;
  }
  return bitstatus;
}
 8000e50:	bf14      	ite	ne
 8000e52:	2001      	movne	r0, #1
 8000e54:	2000      	moveq	r0, #0
 8000e56:	4770      	bx	lr

08000e58 <HAL_GPIO_WritePin>:
{
  /* Check the parameters */
  assert_param(IS_GPIO_PIN(GPIO_Pin));
  assert_param(IS_GPIO_PIN_ACTION(PinState));

  if (PinState != GPIO_PIN_RESET)
 8000e58:	b10a      	cbz	r2, 8000e5e <HAL_GPIO_WritePin+0x6>
  {
    GPIOx->BSRR = GPIO_Pin;
  }
  else
  {
    GPIOx->BSRR = (uint32_t)GPIO_Pin << 16U;
 8000e5a:	6101      	str	r1, [r0, #16]
 8000e5c:	4770      	bx	lr
 8000e5e:	0409      	lsls	r1, r1, #16
 8000e60:	e7fb      	b.n	8000e5a <HAL_GPIO_WritePin+0x2>
	...

08000e64 <HAL_RCC_OscConfig>:
  /* Check the parameters */
  assert_param(RCC_OscInitStruct != NULL);
  assert_param(IS_RCC_OSCILLATORTYPE(RCC_OscInitStruct->OscillatorType));
  
  /*------------------------------- HSE Configuration ------------------------*/
  if(((RCC_OscInitStruct->OscillatorType) & RCC_OSCILLATORTYPE_HSE) == RCC_OSCILLATORTYPE_HSE)
 8000e64:	6803      	ldr	r3, [r0, #0]
{
 8000e66:	e92d 41f3 	stmdb	sp!, {r0, r1, r4, r5, r6, r7, r8, lr}
  if(((RCC_OscInitStruct->OscillatorType) & RCC_OSCILLATORTYPE_HSE) == RCC_OSCILLATORTYPE_HSE)
 8000e6a:	07db      	lsls	r3, r3, #31
{
 8000e6c:	4605      	mov	r5, r0
  if(((RCC_OscInitStruct->OscillatorType) & RCC_OSCILLATORTYPE_HSE) == RCC_OSCILLATORTYPE_HSE)
 8000e6e:	d410      	bmi.n	8000e92 <HAL_RCC_OscConfig+0x2e>
        }
      }
    }
  }
  /*----------------------------- HSI Configuration --------------------------*/ 
  if(((RCC_OscInitStruct->OscillatorType) & RCC_OSCILLATORTYPE_HSI) == RCC_OSCILLATORTYPE_HSI)
 8000e70:	682b      	ldr	r3, [r5, #0]
 8000e72:	079f      	lsls	r7, r3, #30
 8000e74:	d45e      	bmi.n	8000f34 <HAL_RCC_OscConfig+0xd0>
        }
      }
    }
  }
  /*------------------------------ LSI Configuration -------------------------*/ 
  if(((RCC_OscInitStruct->OscillatorType) & RCC_OSCILLATORTYPE_LSI) == RCC_OSCILLATORTYPE_LSI)
 8000e76:	682b      	ldr	r3, [r5, #0]
 8000e78:	0719      	lsls	r1, r3, #28
 8000e7a:	f100 8095 	bmi.w	8000fa8 <HAL_RCC_OscConfig+0x144>
        }
      }
    }
  }
  /*------------------------------ LSE Configuration -------------------------*/ 
  if(((RCC_OscInitStruct->OscillatorType) & RCC_OSCILLATORTYPE_LSE) == RCC_OSCILLATORTYPE_LSE)
 8000e7e:	682b      	ldr	r3, [r5, #0]
 8000e80:	075a      	lsls	r2, r3, #29
 8000e82:	f100 80bf 	bmi.w	8001004 <HAL_RCC_OscConfig+0x1a0>

#endif /* RCC_CR_PLL2ON */
  /*-------------------------------- PLL Configuration -----------------------*/
  /* Check the parameters */
  assert_param(IS_RCC_PLL(RCC_OscInitStruct->PLL.PLLState));
  if ((RCC_OscInitStruct->PLL.PLLState) != RCC_PLL_NONE)
 8000e86:	69ea      	ldr	r2, [r5, #28]
 8000e88:	2a00      	cmp	r2, #0
 8000e8a:	f040 812d 	bne.w	80010e8 <HAL_RCC_OscConfig+0x284>
    {
      return HAL_ERROR;
    }
  }
  
  return HAL_OK;
 8000e8e:	2000      	movs	r0, #0
 8000e90:	e014      	b.n	8000ebc <HAL_RCC_OscConfig+0x58>
    if((__HAL_RCC_GET_SYSCLK_SOURCE() == RCC_SYSCLKSOURCE_STATUS_HSE) 
 8000e92:	4c90      	ldr	r4, [pc, #576]	; (80010d4 <HAL_RCC_OscConfig+0x270>)
 8000e94:	6863      	ldr	r3, [r4, #4]
 8000e96:	f003 030c 	and.w	r3, r3, #12
 8000e9a:	2b04      	cmp	r3, #4
 8000e9c:	d007      	beq.n	8000eae <HAL_RCC_OscConfig+0x4a>
       || ((__HAL_RCC_GET_SYSCLK_SOURCE() == RCC_SYSCLKSOURCE_STATUS_PLLCLK) && (__HAL_RCC_GET_PLL_OSCSOURCE() == RCC_PLLSOURCE_HSE)))
 8000e9e:	6863      	ldr	r3, [r4, #4]
 8000ea0:	f003 030c 	and.w	r3, r3, #12
 8000ea4:	2b08      	cmp	r3, #8
 8000ea6:	d10c      	bne.n	8000ec2 <HAL_RCC_OscConfig+0x5e>
 8000ea8:	6863      	ldr	r3, [r4, #4]
 8000eaa:	03de      	lsls	r6, r3, #15
 8000eac:	d509      	bpl.n	8000ec2 <HAL_RCC_OscConfig+0x5e>
      if((__HAL_RCC_GET_FLAG(RCC_FLAG_HSERDY) != RESET) && (RCC_OscInitStruct->HSEState == RCC_HSE_OFF))
 8000eae:	6823      	ldr	r3, [r4, #0]
 8000eb0:	039c      	lsls	r4, r3, #14
 8000eb2:	d5dd      	bpl.n	8000e70 <HAL_RCC_OscConfig+0xc>
 8000eb4:	686b      	ldr	r3, [r5, #4]
 8000eb6:	2b00      	cmp	r3, #0
 8000eb8:	d1da      	bne.n	8000e70 <HAL_RCC_OscConfig+0xc>
        return HAL_ERROR;
 8000eba:	2001      	movs	r0, #1
}
 8000ebc:	b002      	add	sp, #8
 8000ebe:	e8bd 81f0 	ldmia.w	sp!, {r4, r5, r6, r7, r8, pc}
      __HAL_RCC_HSE_CONFIG(RCC_OscInitStruct->HSEState);
 8000ec2:	686b      	ldr	r3, [r5, #4]
 8000ec4:	f5b3 3f80 	cmp.w	r3, #65536	; 0x10000
 8000ec8:	d110      	bne.n	8000eec <HAL_RCC_OscConfig+0x88>
 8000eca:	6823      	ldr	r3, [r4, #0]
 8000ecc:	f443 3380 	orr.w	r3, r3, #65536	; 0x10000
 8000ed0:	6023      	str	r3, [r4, #0]
        tickstart = HAL_GetTick();
 8000ed2:	f7ff fe67 	bl	8000ba4 <HAL_GetTick>
 8000ed6:	4606      	mov	r6, r0
        while(__HAL_RCC_GET_FLAG(RCC_FLAG_HSERDY) == RESET)
 8000ed8:	6823      	ldr	r3, [r4, #0]
 8000eda:	0398      	lsls	r0, r3, #14
 8000edc:	d4c8      	bmi.n	8000e70 <HAL_RCC_OscConfig+0xc>
          if((HAL_GetTick() - tickstart ) > HSE_TIMEOUT_VALUE)
 8000ede:	f7ff fe61 	bl	8000ba4 <HAL_GetTick>
 8000ee2:	1b80      	subs	r0, r0, r6
 8000ee4:	2864      	cmp	r0, #100	; 0x64
 8000ee6:	d9f7      	bls.n	8000ed8 <HAL_RCC_OscConfig+0x74>
            return HAL_TIMEOUT;
 8000ee8:	2003      	movs	r0, #3
 8000eea:	e7e7      	b.n	8000ebc <HAL_RCC_OscConfig+0x58>
      __HAL_RCC_HSE_CONFIG(RCC_OscInitStruct->HSEState);
 8000eec:	b99b      	cbnz	r3, 8000f16 <HAL_RCC_OscConfig+0xb2>
 8000eee:	6823      	ldr	r3, [r4, #0]
 8000ef0:	f423 3380 	bic.w	r3, r3, #65536	; 0x10000
 8000ef4:	6023      	str	r3, [r4, #0]
 8000ef6:	6823      	ldr	r3, [r4, #0]
 8000ef8:	f423 2380 	bic.w	r3, r3, #262144	; 0x40000
 8000efc:	6023      	str	r3, [r4, #0]
        tickstart = HAL_GetTick();
 8000efe:	f7ff fe51 	bl	8000ba4 <HAL_GetTick>
 8000f02:	4606      	mov	r6, r0
        while(__HAL_RCC_GET_FLAG(RCC_FLAG_HSERDY) != RESET)
 8000f04:	6823      	ldr	r3, [r4, #0]
 8000f06:	0399      	lsls	r1, r3, #14
 8000f08:	d5b2      	bpl.n	8000e70 <HAL_RCC_OscConfig+0xc>
           if((HAL_GetTick() - tickstart ) > HSE_TIMEOUT_VALUE)
 8000f0a:	f7ff fe4b 	bl	8000ba4 <HAL_GetTick>
 8000f0e:	1b80      	subs	r0, r0, r6
 8000f10:	2864      	cmp	r0, #100	; 0x64
 8000f12:	d9f7      	bls.n	8000f04 <HAL_RCC_OscConfig+0xa0>
 8000f14:	e7e8      	b.n	8000ee8 <HAL_RCC_OscConfig+0x84>
      __HAL_RCC_HSE_CONFIG(RCC_OscInitStruct->HSEState);
 8000f16:	f5b3 2fa0 	cmp.w	r3, #327680	; 0x50000
 8000f1a:	6823      	ldr	r3, [r4, #0]
 8000f1c:	d103      	bne.n	8000f26 <HAL_RCC_OscConfig+0xc2>
 8000f1e:	f443 2380 	orr.w	r3, r3, #262144	; 0x40000
 8000f22:	6023      	str	r3, [r4, #0]
 8000f24:	e7d1      	b.n	8000eca <HAL_RCC_OscConfig+0x66>
 8000f26:	f423 3380 	bic.w	r3, r3, #65536	; 0x10000
 8000f2a:	6023      	str	r3, [r4, #0]
 8000f2c:	6823      	ldr	r3, [r4, #0]
 8000f2e:	f423 2380 	bic.w	r3, r3, #262144	; 0x40000
 8000f32:	e7cd      	b.n	8000ed0 <HAL_RCC_OscConfig+0x6c>
    if((__HAL_RCC_GET_SYSCLK_SOURCE() == RCC_SYSCLKSOURCE_STATUS_HSI) 
 8000f34:	4c67      	ldr	r4, [pc, #412]	; (80010d4 <HAL_RCC_OscConfig+0x270>)
 8000f36:	6863      	ldr	r3, [r4, #4]
 8000f38:	f013 0f0c 	tst.w	r3, #12
 8000f3c:	d007      	beq.n	8000f4e <HAL_RCC_OscConfig+0xea>
       || ((__HAL_RCC_GET_SYSCLK_SOURCE() == RCC_SYSCLKSOURCE_STATUS_PLLCLK) && (__HAL_RCC_GET_PLL_OSCSOURCE() == RCC_PLLSOURCE_HSI_DIV2)))
 8000f3e:	6863      	ldr	r3, [r4, #4]
 8000f40:	f003 030c 	and.w	r3, r3, #12
 8000f44:	2b08      	cmp	r3, #8
 8000f46:	d110      	bne.n	8000f6a <HAL_RCC_OscConfig+0x106>
 8000f48:	6863      	ldr	r3, [r4, #4]
 8000f4a:	03da      	lsls	r2, r3, #15
 8000f4c:	d40d      	bmi.n	8000f6a <HAL_RCC_OscConfig+0x106>
      if((__HAL_RCC_GET_FLAG(RCC_FLAG_HSIRDY) != RESET) && (RCC_OscInitStruct->HSIState != RCC_HSI_ON))
 8000f4e:	6823      	ldr	r3, [r4, #0]
 8000f50:	079b      	lsls	r3, r3, #30
 8000f52:	d502      	bpl.n	8000f5a <HAL_RCC_OscConfig+0xf6>
 8000f54:	692b      	ldr	r3, [r5, #16]
 8000f56:	2b01      	cmp	r3, #1
 8000f58:	d1af      	bne.n	8000eba <HAL_RCC_OscConfig+0x56>
        __HAL_RCC_HSI_CALIBRATIONVALUE_ADJUST(RCC_OscInitStruct->HSICalibrationValue);
 8000f5a:	6823      	ldr	r3, [r4, #0]
 8000f5c:	696a      	ldr	r2, [r5, #20]
 8000f5e:	f023 03f8 	bic.w	r3, r3, #248	; 0xf8
 8000f62:	ea43 03c2 	orr.w	r3, r3, r2, lsl #3
 8000f66:	6023      	str	r3, [r4, #0]
 8000f68:	e785      	b.n	8000e76 <HAL_RCC_OscConfig+0x12>
      if(RCC_OscInitStruct->HSIState != RCC_HSI_OFF)
 8000f6a:	692a      	ldr	r2, [r5, #16]
 8000f6c:	4b5a      	ldr	r3, [pc, #360]	; (80010d8 <HAL_RCC_OscConfig+0x274>)
 8000f6e:	b16a      	cbz	r2, 8000f8c <HAL_RCC_OscConfig+0x128>
        __HAL_RCC_HSI_ENABLE();
 8000f70:	2201      	movs	r2, #1
 8000f72:	601a      	str	r2, [r3, #0]
        tickstart = HAL_GetTick();
 8000f74:	f7ff fe16 	bl	8000ba4 <HAL_GetTick>
 8000f78:	4606      	mov	r6, r0
        while(__HAL_RCC_GET_FLAG(RCC_FLAG_HSIRDY) == RESET)
 8000f7a:	6823      	ldr	r3, [r4, #0]
 8000f7c:	079f      	lsls	r7, r3, #30
 8000f7e:	d4ec      	bmi.n	8000f5a <HAL_RCC_OscConfig+0xf6>
          if((HAL_GetTick() - tickstart ) > HSI_TIMEOUT_VALUE)
 8000f80:	f7ff fe10 	bl	8000ba4 <HAL_GetTick>
 8000f84:	1b80      	subs	r0, r0, r6
 8000f86:	2802      	cmp	r0, #2
 8000f88:	d9f7      	bls.n	8000f7a <HAL_RCC_OscConfig+0x116>
 8000f8a:	e7ad      	b.n	8000ee8 <HAL_RCC_OscConfig+0x84>
        __HAL_RCC_HSI_DISABLE();
 8000f8c:	601a      	str	r2, [r3, #0]
        tickstart = HAL_GetTick();
 8000f8e:	f7ff fe09 	bl	8000ba4 <HAL_GetTick>
 8000f92:	4606      	mov	r6, r0
        while(__HAL_RCC_GET_FLAG(RCC_FLAG_HSIRDY) != RESET)
 8000f94:	6823      	ldr	r3, [r4, #0]
 8000f96:	0798      	lsls	r0, r3, #30
 8000f98:	f57f af6d 	bpl.w	8000e76 <HAL_RCC_OscConfig+0x12>
          if((HAL_GetTick() - tickstart ) > HSI_TIMEOUT_VALUE)
 8000f9c:	f7ff fe02 	bl	8000ba4 <HAL_GetTick>
 8000fa0:	1b80      	subs	r0, r0, r6
 8000fa2:	2802      	cmp	r0, #2
 8000fa4:	d9f6      	bls.n	8000f94 <HAL_RCC_OscConfig+0x130>
 8000fa6:	e79f      	b.n	8000ee8 <HAL_RCC_OscConfig+0x84>
    if(RCC_OscInitStruct->LSIState != RCC_LSI_OFF)
 8000fa8:	69aa      	ldr	r2, [r5, #24]
 8000faa:	4c4a      	ldr	r4, [pc, #296]	; (80010d4 <HAL_RCC_OscConfig+0x270>)
 8000fac:	4b4b      	ldr	r3, [pc, #300]	; (80010dc <HAL_RCC_OscConfig+0x278>)
 8000fae:	b1da      	cbz	r2, 8000fe8 <HAL_RCC_OscConfig+0x184>
      __HAL_RCC_LSI_ENABLE();
 8000fb0:	2201      	movs	r2, #1
 8000fb2:	601a      	str	r2, [r3, #0]
      tickstart = HAL_GetTick();
 8000fb4:	f7ff fdf6 	bl	8000ba4 <HAL_GetTick>
 8000fb8:	4606      	mov	r6, r0
      while(__HAL_RCC_GET_FLAG(RCC_FLAG_LSIRDY) == RESET)
 8000fba:	6a63      	ldr	r3, [r4, #36]	; 0x24
 8000fbc:	079b      	lsls	r3, r3, #30
 8000fbe:	d50d      	bpl.n	8000fdc <HAL_RCC_OscConfig+0x178>
  * @param  mdelay: specifies the delay time length, in milliseconds.
  * @retval None
  */
static void RCC_Delay(uint32_t mdelay)
{
  __IO uint32_t Delay = mdelay * (SystemCoreClock / 8U / 1000U);
 8000fc0:	f44f 52fa 	mov.w	r2, #8000	; 0x1f40
 8000fc4:	4b46      	ldr	r3, [pc, #280]	; (80010e0 <HAL_RCC_OscConfig+0x27c>)
 8000fc6:	681b      	ldr	r3, [r3, #0]
 8000fc8:	fbb3 f3f2 	udiv	r3, r3, r2
 8000fcc:	9301      	str	r3, [sp, #4]
  \brief   No Operation
  \details No Operation does nothing. This instruction can be used for code alignment purposes.
 */
__attribute__((always_inline)) __STATIC_INLINE void __NOP(void)
{
  __ASM volatile ("nop");
 8000fce:	bf00      	nop
  do 
  {
    __NOP();
  } 
  while (Delay --);
 8000fd0:	9b01      	ldr	r3, [sp, #4]
 8000fd2:	1e5a      	subs	r2, r3, #1
 8000fd4:	9201      	str	r2, [sp, #4]
 8000fd6:	2b00      	cmp	r3, #0
 8000fd8:	d1f9      	bne.n	8000fce <HAL_RCC_OscConfig+0x16a>
 8000fda:	e750      	b.n	8000e7e <HAL_RCC_OscConfig+0x1a>
        if((HAL_GetTick() - tickstart ) > LSI_TIMEOUT_VALUE)
 8000fdc:	f7ff fde2 	bl	8000ba4 <HAL_GetTick>
 8000fe0:	1b80      	subs	r0, r0, r6
 8000fe2:	2802      	cmp	r0, #2
 8000fe4:	d9e9      	bls.n	8000fba <HAL_RCC_OscConfig+0x156>
 8000fe6:	e77f      	b.n	8000ee8 <HAL_RCC_OscConfig+0x84>
      __HAL_RCC_LSI_DISABLE();
 8000fe8:	601a      	str	r2, [r3, #0]
      tickstart = HAL_GetTick();
 8000fea:	f7ff fddb 	bl	8000ba4 <HAL_GetTick>
 8000fee:	4606      	mov	r6, r0
      while(__HAL_RCC_GET_FLAG(RCC_FLAG_LSIRDY) != RESET)
 8000ff0:	6a63      	ldr	r3, [r4, #36]	; 0x24
 8000ff2:	079f      	lsls	r7, r3, #30
 8000ff4:	f57f af43 	bpl.w	8000e7e <HAL_RCC_OscConfig+0x1a>
        if((HAL_GetTick() - tickstart ) > LSI_TIMEOUT_VALUE)
 8000ff8:	f7ff fdd4 	bl	8000ba4 <HAL_GetTick>
 8000ffc:	1b80      	subs	r0, r0, r6
 8000ffe:	2802      	cmp	r0, #2
 8001000:	d9f6      	bls.n	8000ff0 <HAL_RCC_OscConfig+0x18c>
 8001002:	e771      	b.n	8000ee8 <HAL_RCC_OscConfig+0x84>
    if(__HAL_RCC_PWR_IS_CLK_DISABLED())
 8001004:	4c33      	ldr	r4, [pc, #204]	; (80010d4 <HAL_RCC_OscConfig+0x270>)
 8001006:	69e3      	ldr	r3, [r4, #28]
 8001008:	00d8      	lsls	r0, r3, #3
 800100a:	d424      	bmi.n	8001056 <HAL_RCC_OscConfig+0x1f2>
      pwrclkchanged = SET;
 800100c:	2701      	movs	r7, #1
      __HAL_RCC_PWR_CLK_ENABLE();
 800100e:	69e3      	ldr	r3, [r4, #28]
 8001010:	f043 5380 	orr.w	r3, r3, #268435456	; 0x10000000
 8001014:	61e3      	str	r3, [r4, #28]
 8001016:	69e3      	ldr	r3, [r4, #28]
 8001018:	f003 5380 	and.w	r3, r3, #268435456	; 0x10000000
 800101c:	9300      	str	r3, [sp, #0]
 800101e:	9b00      	ldr	r3, [sp, #0]
    if(HAL_IS_BIT_CLR(PWR->CR, PWR_CR_DBP))
 8001020:	4e30      	ldr	r6, [pc, #192]	; (80010e4 <HAL_RCC_OscConfig+0x280>)
 8001022:	6833      	ldr	r3, [r6, #0]
 8001024:	05d9      	lsls	r1, r3, #23
 8001026:	d518      	bpl.n	800105a <HAL_RCC_OscConfig+0x1f6>
    __HAL_RCC_LSE_CONFIG(RCC_OscInitStruct->LSEState);
 8001028:	68eb      	ldr	r3, [r5, #12]
 800102a:	2b01      	cmp	r3, #1
 800102c:	d126      	bne.n	800107c <HAL_RCC_OscConfig+0x218>
 800102e:	6a23      	ldr	r3, [r4, #32]
 8001030:	f043 0301 	orr.w	r3, r3, #1
 8001034:	6223      	str	r3, [r4, #32]
      tickstart = HAL_GetTick();
 8001036:	f7ff fdb5 	bl	8000ba4 <HAL_GetTick>
        if((HAL_GetTick() - tickstart ) > RCC_LSE_TIMEOUT_VALUE)
 800103a:	f241 3688 	movw	r6, #5000	; 0x1388
      tickstart = HAL_GetTick();
 800103e:	4680      	mov	r8, r0
      while(__HAL_RCC_GET_FLAG(RCC_FLAG_LSERDY) == RESET)
 8001040:	6a23      	ldr	r3, [r4, #32]
 8001042:	079b      	lsls	r3, r3, #30
 8001044:	d53f      	bpl.n	80010c6 <HAL_RCC_OscConfig+0x262>
    if(pwrclkchanged == SET)
 8001046:	2f00      	cmp	r7, #0
 8001048:	f43f af1d 	beq.w	8000e86 <HAL_RCC_OscConfig+0x22>
      __HAL_RCC_PWR_CLK_DISABLE();
 800104c:	69e3      	ldr	r3, [r4, #28]
 800104e:	f023 5380 	bic.w	r3, r3, #268435456	; 0x10000000
 8001052:	61e3      	str	r3, [r4, #28]
 8001054:	e717      	b.n	8000e86 <HAL_RCC_OscConfig+0x22>
    FlagStatus       pwrclkchanged = RESET;
 8001056:	2700      	movs	r7, #0
 8001058:	e7e2      	b.n	8001020 <HAL_RCC_OscConfig+0x1bc>
      SET_BIT(PWR->CR, PWR_CR_DBP);
 800105a:	6833      	ldr	r3, [r6, #0]
 800105c:	f443 7380 	orr.w	r3, r3, #256	; 0x100
 8001060:	6033      	str	r3, [r6, #0]
      tickstart = HAL_GetTick();
 8001062:	f7ff fd9f 	bl	8000ba4 <HAL_GetTick>
 8001066:	4680      	mov	r8, r0
      while(HAL_IS_BIT_CLR(PWR->CR, PWR_CR_DBP))
 8001068:	6833      	ldr	r3, [r6, #0]
 800106a:	05da      	lsls	r2, r3, #23
 800106c:	d4dc      	bmi.n	8001028 <HAL_RCC_OscConfig+0x1c4>
        if((HAL_GetTick() - tickstart) > RCC_DBP_TIMEOUT_VALUE)
 800106e:	f7ff fd99 	bl	8000ba4 <HAL_GetTick>
 8001072:	eba0 0008 	sub.w	r0, r0, r8
 8001076:	2864      	cmp	r0, #100	; 0x64
 8001078:	d9f6      	bls.n	8001068 <HAL_RCC_OscConfig+0x204>
 800107a:	e735      	b.n	8000ee8 <HAL_RCC_OscConfig+0x84>
    __HAL_RCC_LSE_CONFIG(RCC_OscInitStruct->LSEState);
 800107c:	b9ab      	cbnz	r3, 80010aa <HAL_RCC_OscConfig+0x246>
 800107e:	6a23      	ldr	r3, [r4, #32]
        if((HAL_GetTick() - tickstart ) > RCC_LSE_TIMEOUT_VALUE)
 8001080:	f241 3888 	movw	r8, #5000	; 0x1388
    __HAL_RCC_LSE_CONFIG(RCC_OscInitStruct->LSEState);
 8001084:	f023 0301 	bic.w	r3, r3, #1
 8001088:	6223      	str	r3, [r4, #32]
 800108a:	6a23      	ldr	r3, [r4, #32]
 800108c:	f023 0304 	bic.w	r3, r3, #4
 8001090:	6223      	str	r3, [r4, #32]
      tickstart = HAL_GetTick();
 8001092:	f7ff fd87 	bl	8000ba4 <HAL_GetTick>
 8001096:	4606      	mov	r6, r0
      while(__HAL_RCC_GET_FLAG(RCC_FLAG_LSERDY) != RESET)
 8001098:	6a23      	ldr	r3, [r4, #32]
 800109a:	0798      	lsls	r0, r3, #30
 800109c:	d5d3      	bpl.n	8001046 <HAL_RCC_OscConfig+0x1e2>
        if((HAL_GetTick() - tickstart ) > RCC_LSE_TIMEOUT_VALUE)
 800109e:	f7ff fd81 	bl	8000ba4 <HAL_GetTick>
 80010a2:	1b80      	subs	r0, r0, r6
 80010a4:	4540      	cmp	r0, r8
 80010a6:	d9f7      	bls.n	8001098 <HAL_RCC_OscConfig+0x234>
 80010a8:	e71e      	b.n	8000ee8 <HAL_RCC_OscConfig+0x84>
    __HAL_RCC_LSE_CONFIG(RCC_OscInitStruct->LSEState);
 80010aa:	2b05      	cmp	r3, #5
 80010ac:	6a23      	ldr	r3, [r4, #32]
 80010ae:	d103      	bne.n	80010b8 <HAL_RCC_OscConfig+0x254>
 80010b0:	f043 0304 	orr.w	r3, r3, #4
 80010b4:	6223      	str	r3, [r4, #32]
 80010b6:	e7ba      	b.n	800102e <HAL_RCC_OscConfig+0x1ca>
 80010b8:	f023 0301 	bic.w	r3, r3, #1
 80010bc:	6223      	str	r3, [r4, #32]
 80010be:	6a23      	ldr	r3, [r4, #32]
 80010c0:	f023 0304 	bic.w	r3, r3, #4
 80010c4:	e7b6      	b.n	8001034 <HAL_RCC_OscConfig+0x1d0>
        if((HAL_GetTick() - tickstart ) > RCC_LSE_TIMEOUT_VALUE)
 80010c6:	f7ff fd6d 	bl	8000ba4 <HAL_GetTick>
 80010ca:	eba0 0008 	sub.w	r0, r0, r8
 80010ce:	42b0      	cmp	r0, r6
 80010d0:	d9b6      	bls.n	8001040 <HAL_RCC_OscConfig+0x1dc>
 80010d2:	e709      	b.n	8000ee8 <HAL_RCC_OscConfig+0x84>
 80010d4:	40021000 	.word	0x40021000
 80010d8:	42420000 	.word	0x42420000
 80010dc:	42420480 	.word	0x42420480
 80010e0:	2000000c 	.word	0x2000000c
 80010e4:	40007000 	.word	0x40007000
    if(__HAL_RCC_GET_SYSCLK_SOURCE() != RCC_SYSCLKSOURCE_STATUS_PLLCLK)
 80010e8:	4c22      	ldr	r4, [pc, #136]	; (8001174 <HAL_RCC_OscConfig+0x310>)
 80010ea:	6863      	ldr	r3, [r4, #4]
 80010ec:	f003 030c 	and.w	r3, r3, #12
 80010f0:	2b08      	cmp	r3, #8
 80010f2:	f43f aee2 	beq.w	8000eba <HAL_RCC_OscConfig+0x56>
 80010f6:	2300      	movs	r3, #0
 80010f8:	4e1f      	ldr	r6, [pc, #124]	; (8001178 <HAL_RCC_OscConfig+0x314>)
      if((RCC_OscInitStruct->PLL.PLLState) == RCC_PLL_ON)
 80010fa:	2a02      	cmp	r2, #2
        __HAL_RCC_PLL_DISABLE();
 80010fc:	6033      	str	r3, [r6, #0]
      if((RCC_OscInitStruct->PLL.PLLState) == RCC_PLL_ON)
 80010fe:	d12b      	bne.n	8001158 <HAL_RCC_OscConfig+0x2f4>
        tickstart = HAL_GetTick();
 8001100:	f7ff fd50 	bl	8000ba4 <HAL_GetTick>
 8001104:	4607      	mov	r7, r0
        while(__HAL_RCC_GET_FLAG(RCC_FLAG_PLLRDY)  != RESET)
 8001106:	6823      	ldr	r3, [r4, #0]
 8001108:	0199      	lsls	r1, r3, #6
 800110a:	d41f      	bmi.n	800114c <HAL_RCC_OscConfig+0x2e8>
        if(RCC_OscInitStruct->PLL.PLLSource == RCC_PLLSOURCE_HSE)
 800110c:	6a2b      	ldr	r3, [r5, #32]
 800110e:	f5b3 3f80 	cmp.w	r3, #65536	; 0x10000
 8001112:	d105      	bne.n	8001120 <HAL_RCC_OscConfig+0x2bc>
          __HAL_RCC_HSE_PREDIV_CONFIG(RCC_OscInitStruct->HSEPredivValue);
 8001114:	6862      	ldr	r2, [r4, #4]
 8001116:	68a9      	ldr	r1, [r5, #8]
 8001118:	f422 3200 	bic.w	r2, r2, #131072	; 0x20000
 800111c:	430a      	orrs	r2, r1
 800111e:	6062      	str	r2, [r4, #4]
        __HAL_RCC_PLL_CONFIG(RCC_OscInitStruct->PLL.PLLSource,
 8001120:	6a69      	ldr	r1, [r5, #36]	; 0x24
 8001122:	6862      	ldr	r2, [r4, #4]
 8001124:	430b      	orrs	r3, r1
 8001126:	f422 1274 	bic.w	r2, r2, #3997696	; 0x3d0000
 800112a:	4313      	orrs	r3, r2
 800112c:	6063      	str	r3, [r4, #4]
        __HAL_RCC_PLL_ENABLE();
 800112e:	2301      	movs	r3, #1
 8001130:	6033      	str	r3, [r6, #0]
        tickstart = HAL_GetTick();
 8001132:	f7ff fd37 	bl	8000ba4 <HAL_GetTick>
 8001136:	4605      	mov	r5, r0
        while(__HAL_RCC_GET_FLAG(RCC_FLAG_PLLRDY)  == RESET)
 8001138:	6823      	ldr	r3, [r4, #0]
 800113a:	019a      	lsls	r2, r3, #6
 800113c:	f53f aea7 	bmi.w	8000e8e <HAL_RCC_OscConfig+0x2a>
          if((HAL_GetTick() - tickstart ) > PLL_TIMEOUT_VALUE)
 8001140:	f7ff fd30 	bl	8000ba4 <HAL_GetTick>
 8001144:	1b40      	subs	r0, r0, r5
 8001146:	2802      	cmp	r0, #2
 8001148:	d9f6      	bls.n	8001138 <HAL_RCC_OscConfig+0x2d4>
 800114a:	e6cd      	b.n	8000ee8 <HAL_RCC_OscConfig+0x84>
          if((HAL_GetTick() - tickstart ) > PLL_TIMEOUT_VALUE)
 800114c:	f7ff fd2a 	bl	8000ba4 <HAL_GetTick>
 8001150:	1bc0      	subs	r0, r0, r7
 8001152:	2802      	cmp	r0, #2
 8001154:	d9d7      	bls.n	8001106 <HAL_RCC_OscConfig+0x2a2>
 8001156:	e6c7      	b.n	8000ee8 <HAL_RCC_OscConfig+0x84>
        tickstart = HAL_GetTick();
 8001158:	f7ff fd24 	bl	8000ba4 <HAL_GetTick>
 800115c:	4605      	mov	r5, r0
        while(__HAL_RCC_GET_FLAG(RCC_FLAG_PLLRDY)  != RESET)
 800115e:	6823      	ldr	r3, [r4, #0]
 8001160:	019b      	lsls	r3, r3, #6
 8001162:	f57f ae94 	bpl.w	8000e8e <HAL_RCC_OscConfig+0x2a>
          if((HAL_GetTick() - tickstart ) > PLL_TIMEOUT_VALUE)
 8001166:	f7ff fd1d 	bl	8000ba4 <HAL_GetTick>
 800116a:	1b40      	subs	r0, r0, r5
 800116c:	2802      	cmp	r0, #2
 800116e:	d9f6      	bls.n	800115e <HAL_RCC_OscConfig+0x2fa>
 8001170:	e6ba      	b.n	8000ee8 <HAL_RCC_OscConfig+0x84>
 8001172:	bf00      	nop
 8001174:	40021000 	.word	0x40021000
 8001178:	42420060 	.word	0x42420060

0800117c <HAL_RCC_GetSysClockFreq>:
{
 800117c:	b530      	push	{r4, r5, lr}
  const uint8_t aPLLMULFactorTable[16] = {2, 3, 4, 5, 6, 7, 8, 9, 10, 11, 12, 13, 14, 15, 16, 16};
 800117e:	4b19      	ldr	r3, [pc, #100]	; (80011e4 <HAL_RCC_GetSysClockFreq+0x68>)
{
 8001180:	b087      	sub	sp, #28
  const uint8_t aPLLMULFactorTable[16] = {2, 3, 4, 5, 6, 7, 8, 9, 10, 11, 12, 13, 14, 15, 16, 16};
 8001182:	ac02      	add	r4, sp, #8
 8001184:	f103 0510 	add.w	r5, r3, #16
 8001188:	4622      	mov	r2, r4
 800118a:	6818      	ldr	r0, [r3, #0]
 800118c:	6859      	ldr	r1, [r3, #4]
 800118e:	3308      	adds	r3, #8
 8001190:	c203      	stmia	r2!, {r0, r1}
 8001192:	42ab      	cmp	r3, r5
 8001194:	4614      	mov	r4, r2
 8001196:	d1f7      	bne.n	8001188 <HAL_RCC_GetSysClockFreq+0xc>
  const uint8_t aPredivFactorTable[2] = {1, 2};
 8001198:	2301      	movs	r3, #1
 800119a:	f88d 3004 	strb.w	r3, [sp, #4]
 800119e:	2302      	movs	r3, #2
  tmpreg = RCC->CFGR;
 80011a0:	4911      	ldr	r1, [pc, #68]	; (80011e8 <HAL_RCC_GetSysClockFreq+0x6c>)
  const uint8_t aPredivFactorTable[2] = {1, 2};
 80011a2:	f88d 3005 	strb.w	r3, [sp, #5]
  tmpreg = RCC->CFGR;
 80011a6:	684b      	ldr	r3, [r1, #4]
  switch (tmpreg & RCC_CFGR_SWS)
 80011a8:	f003 020c 	and.w	r2, r3, #12
 80011ac:	2a08      	cmp	r2, #8
 80011ae:	d117      	bne.n	80011e0 <HAL_RCC_GetSysClockFreq+0x64>
      pllmul = aPLLMULFactorTable[(uint32_t)(tmpreg & RCC_CFGR_PLLMULL) >> RCC_CFGR_PLLMULL_Pos];
 80011b0:	f3c3 4283 	ubfx	r2, r3, #18, #4
 80011b4:	a806      	add	r0, sp, #24
 80011b6:	4402      	add	r2, r0
      if ((tmpreg & RCC_CFGR_PLLSRC) != RCC_PLLSOURCE_HSI_DIV2)
 80011b8:	03db      	lsls	r3, r3, #15
      pllmul = aPLLMULFactorTable[(uint32_t)(tmpreg & RCC_CFGR_PLLMULL) >> RCC_CFGR_PLLMULL_Pos];
 80011ba:	f812 2c10 	ldrb.w	r2, [r2, #-16]
      if ((tmpreg & RCC_CFGR_PLLSRC) != RCC_PLLSOURCE_HSI_DIV2)
 80011be:	d50c      	bpl.n	80011da <HAL_RCC_GetSysClockFreq+0x5e>
        prediv = aPredivFactorTable[(uint32_t)(RCC->CFGR & RCC_CFGR_PLLXTPRE) >> RCC_CFGR_PLLXTPRE_Pos];
 80011c0:	684b      	ldr	r3, [r1, #4]
        pllclk = (uint32_t)((HSE_VALUE  * pllmul) / prediv);
 80011c2:	480a      	ldr	r0, [pc, #40]	; (80011ec <HAL_RCC_GetSysClockFreq+0x70>)
        prediv = aPredivFactorTable[(uint32_t)(RCC->CFGR & RCC_CFGR_PLLXTPRE) >> RCC_CFGR_PLLXTPRE_Pos];
 80011c4:	f3c3 4340 	ubfx	r3, r3, #17, #1
        pllclk = (uint32_t)((HSE_VALUE  * pllmul) / prediv);
 80011c8:	4350      	muls	r0, r2
        prediv = aPredivFactorTable[(uint32_t)(RCC->CFGR & RCC_CFGR_PLLXTPRE) >> RCC_CFGR_PLLXTPRE_Pos];
 80011ca:	aa06      	add	r2, sp, #24
 80011cc:	4413      	add	r3, r2
 80011ce:	f813 3c14 	ldrb.w	r3, [r3, #-20]
        pllclk = (uint32_t)((HSE_VALUE  * pllmul) / prediv);
 80011d2:	fbb0 f0f3 	udiv	r0, r0, r3
}
 80011d6:	b007      	add	sp, #28
 80011d8:	bd30      	pop	{r4, r5, pc}
        pllclk = (uint32_t)((HSI_VALUE >> 1) * pllmul);
 80011da:	4805      	ldr	r0, [pc, #20]	; (80011f0 <HAL_RCC_GetSysClockFreq+0x74>)
 80011dc:	4350      	muls	r0, r2
 80011de:	e7fa      	b.n	80011d6 <HAL_RCC_GetSysClockFreq+0x5a>
      sysclockfreq = HSE_VALUE;
 80011e0:	4802      	ldr	r0, [pc, #8]	; (80011ec <HAL_RCC_GetSysClockFreq+0x70>)
  return sysclockfreq;
 80011e2:	e7f8      	b.n	80011d6 <HAL_RCC_GetSysClockFreq+0x5a>
 80011e4:	08003c78 	.word	0x08003c78
 80011e8:	40021000 	.word	0x40021000
 80011ec:	007a1200 	.word	0x007a1200
 80011f0:	003d0900 	.word	0x003d0900

080011f4 <HAL_RCC_ClockConfig>:
  if(FLatency > (FLASH->ACR & FLASH_ACR_LATENCY))
 80011f4:	4a54      	ldr	r2, [pc, #336]	; (8001348 <HAL_RCC_ClockConfig+0x154>)
{
 80011f6:	e92d 41f0 	stmdb	sp!, {r4, r5, r6, r7, r8, lr}
  if(FLatency > (FLASH->ACR & FLASH_ACR_LATENCY))
 80011fa:	6813      	ldr	r3, [r2, #0]
{
 80011fc:	4605      	mov	r5, r0
  if(FLatency > (FLASH->ACR & FLASH_ACR_LATENCY))
 80011fe:	f003 0307 	and.w	r3, r3, #7
 8001202:	428b      	cmp	r3, r1
{
 8001204:	460e      	mov	r6, r1
  if(FLatency > (FLASH->ACR & FLASH_ACR_LATENCY))
 8001206:	d32a      	bcc.n	800125e <HAL_RCC_ClockConfig+0x6a>
  if(((RCC_ClkInitStruct->ClockType) & RCC_CLOCKTYPE_HCLK) == RCC_CLOCKTYPE_HCLK)
 8001208:	6829      	ldr	r1, [r5, #0]
 800120a:	078c      	lsls	r4, r1, #30
 800120c:	d434      	bmi.n	8001278 <HAL_RCC_ClockConfig+0x84>
  if(((RCC_ClkInitStruct->ClockType) & RCC_CLOCKTYPE_SYSCLK) == RCC_CLOCKTYPE_SYSCLK)
 800120e:	07ca      	lsls	r2, r1, #31
 8001210:	d447      	bmi.n	80012a2 <HAL_RCC_ClockConfig+0xae>
  if(FLatency < (FLASH->ACR & FLASH_ACR_LATENCY))
 8001212:	4a4d      	ldr	r2, [pc, #308]	; (8001348 <HAL_RCC_ClockConfig+0x154>)
 8001214:	6813      	ldr	r3, [r2, #0]
 8001216:	f003 0307 	and.w	r3, r3, #7
 800121a:	429e      	cmp	r6, r3
 800121c:	f0c0 8082 	bcc.w	8001324 <HAL_RCC_ClockConfig+0x130>
  if(((RCC_ClkInitStruct->ClockType) & RCC_CLOCKTYPE_PCLK1) == RCC_CLOCKTYPE_PCLK1)
 8001220:	682a      	ldr	r2, [r5, #0]
 8001222:	4c4a      	ldr	r4, [pc, #296]	; (800134c <HAL_RCC_ClockConfig+0x158>)
 8001224:	f012 0f04 	tst.w	r2, #4
 8001228:	f040 8087 	bne.w	800133a <HAL_RCC_ClockConfig+0x146>
  if(((RCC_ClkInitStruct->ClockType) & RCC_CLOCKTYPE_PCLK2) == RCC_CLOCKTYPE_PCLK2)
 800122c:	0713      	lsls	r3, r2, #28
 800122e:	d506      	bpl.n	800123e <HAL_RCC_ClockConfig+0x4a>
    MODIFY_REG(RCC->CFGR, RCC_CFGR_PPRE2, ((RCC_ClkInitStruct->APB2CLKDivider) << 3));
 8001230:	6863      	ldr	r3, [r4, #4]
 8001232:	692a      	ldr	r2, [r5, #16]
 8001234:	f423 5360 	bic.w	r3, r3, #14336	; 0x3800
 8001238:	ea43 03c2 	orr.w	r3, r3, r2, lsl #3
 800123c:	6063      	str	r3, [r4, #4]
  SystemCoreClock = HAL_RCC_GetSysClockFreq() >> AHBPrescTable[(RCC->CFGR & RCC_CFGR_HPRE)>> RCC_CFGR_HPRE_Pos];
 800123e:	f7ff ff9d 	bl	800117c <HAL_RCC_GetSysClockFreq>
 8001242:	6863      	ldr	r3, [r4, #4]
 8001244:	4a42      	ldr	r2, [pc, #264]	; (8001350 <HAL_RCC_ClockConfig+0x15c>)
 8001246:	f3c3 1303 	ubfx	r3, r3, #4, #4
 800124a:	5cd3      	ldrb	r3, [r2, r3]
 800124c:	40d8      	lsrs	r0, r3
 800124e:	4b41      	ldr	r3, [pc, #260]	; (8001354 <HAL_RCC_ClockConfig+0x160>)
 8001250:	6018      	str	r0, [r3, #0]
  HAL_InitTick (TICK_INT_PRIORITY);
 8001252:	2000      	movs	r0, #0
 8001254:	f7ff fc64 	bl	8000b20 <HAL_InitTick>
  return HAL_OK;
 8001258:	2000      	movs	r0, #0
}
 800125a:	e8bd 81f0 	ldmia.w	sp!, {r4, r5, r6, r7, r8, pc}
    __HAL_FLASH_SET_LATENCY(FLatency);
 800125e:	6813      	ldr	r3, [r2, #0]
 8001260:	f023 0307 	bic.w	r3, r3, #7
 8001264:	430b      	orrs	r3, r1
 8001266:	6013      	str	r3, [r2, #0]
    if((FLASH->ACR & FLASH_ACR_LATENCY) != FLatency)
 8001268:	6813      	ldr	r3, [r2, #0]
 800126a:	f003 0307 	and.w	r3, r3, #7
 800126e:	4299      	cmp	r1, r3
 8001270:	d0ca      	beq.n	8001208 <HAL_RCC_ClockConfig+0x14>
      return HAL_ERROR;
 8001272:	2001      	movs	r0, #1
 8001274:	e8bd 81f0 	ldmia.w	sp!, {r4, r5, r6, r7, r8, pc}
 8001278:	4b34      	ldr	r3, [pc, #208]	; (800134c <HAL_RCC_ClockConfig+0x158>)
    if(((RCC_ClkInitStruct->ClockType) & RCC_CLOCKTYPE_PCLK1) == RCC_CLOCKTYPE_PCLK1)
 800127a:	f011 0f04 	tst.w	r1, #4
      MODIFY_REG(RCC->CFGR, RCC_CFGR_PPRE1, RCC_HCLK_DIV16);
 800127e:	bf1e      	ittt	ne
 8001280:	685a      	ldrne	r2, [r3, #4]
 8001282:	f442 62e0 	orrne.w	r2, r2, #1792	; 0x700
 8001286:	605a      	strne	r2, [r3, #4]
    if(((RCC_ClkInitStruct->ClockType) & RCC_CLOCKTYPE_PCLK2) == RCC_CLOCKTYPE_PCLK2)
 8001288:	0708      	lsls	r0, r1, #28
      MODIFY_REG(RCC->CFGR, RCC_CFGR_PPRE2, (RCC_HCLK_DIV16 << 3));
 800128a:	bf42      	ittt	mi
 800128c:	685a      	ldrmi	r2, [r3, #4]
 800128e:	f442 5260 	orrmi.w	r2, r2, #14336	; 0x3800
 8001292:	605a      	strmi	r2, [r3, #4]
    MODIFY_REG(RCC->CFGR, RCC_CFGR_HPRE, RCC_ClkInitStruct->AHBCLKDivider);
 8001294:	685a      	ldr	r2, [r3, #4]
 8001296:	68a8      	ldr	r0, [r5, #8]
 8001298:	f022 02f0 	bic.w	r2, r2, #240	; 0xf0
 800129c:	4302      	orrs	r2, r0
 800129e:	605a      	str	r2, [r3, #4]
 80012a0:	e7b5      	b.n	800120e <HAL_RCC_ClockConfig+0x1a>
    if(RCC_ClkInitStruct->SYSCLKSource == RCC_SYSCLKSOURCE_HSE)
 80012a2:	686a      	ldr	r2, [r5, #4]
 80012a4:	4c29      	ldr	r4, [pc, #164]	; (800134c <HAL_RCC_ClockConfig+0x158>)
 80012a6:	2a01      	cmp	r2, #1
      if(__HAL_RCC_GET_FLAG(RCC_FLAG_HSERDY) == RESET)
 80012a8:	6823      	ldr	r3, [r4, #0]
    if(RCC_ClkInitStruct->SYSCLKSource == RCC_SYSCLKSOURCE_HSE)
 80012aa:	d11c      	bne.n	80012e6 <HAL_RCC_ClockConfig+0xf2>
      if(__HAL_RCC_GET_FLAG(RCC_FLAG_HSERDY) == RESET)
 80012ac:	f413 3f00 	tst.w	r3, #131072	; 0x20000
      if(__HAL_RCC_GET_FLAG(RCC_FLAG_HSIRDY) == RESET)
 80012b0:	d0df      	beq.n	8001272 <HAL_RCC_ClockConfig+0x7e>
    __HAL_RCC_SYSCLK_CONFIG(RCC_ClkInitStruct->SYSCLKSource);
 80012b2:	6863      	ldr	r3, [r4, #4]
        if((HAL_GetTick() - tickstart ) > CLOCKSWITCH_TIMEOUT_VALUE)
 80012b4:	f241 3888 	movw	r8, #5000	; 0x1388
    __HAL_RCC_SYSCLK_CONFIG(RCC_ClkInitStruct->SYSCLKSource);
 80012b8:	f023 0303 	bic.w	r3, r3, #3
 80012bc:	4313      	orrs	r3, r2
 80012be:	6063      	str	r3, [r4, #4]
    tickstart = HAL_GetTick();
 80012c0:	f7ff fc70 	bl	8000ba4 <HAL_GetTick>
    if(RCC_ClkInitStruct->SYSCLKSource == RCC_SYSCLKSOURCE_HSE)
 80012c4:	686b      	ldr	r3, [r5, #4]
    tickstart = HAL_GetTick();
 80012c6:	4607      	mov	r7, r0
    if(RCC_ClkInitStruct->SYSCLKSource == RCC_SYSCLKSOURCE_HSE)
 80012c8:	2b01      	cmp	r3, #1
 80012ca:	d114      	bne.n	80012f6 <HAL_RCC_ClockConfig+0x102>
      while (__HAL_RCC_GET_SYSCLK_SOURCE() != RCC_SYSCLKSOURCE_STATUS_HSE)
 80012cc:	6863      	ldr	r3, [r4, #4]
 80012ce:	f003 030c 	and.w	r3, r3, #12
 80012d2:	2b04      	cmp	r3, #4
 80012d4:	d09d      	beq.n	8001212 <HAL_RCC_ClockConfig+0x1e>
        if((HAL_GetTick() - tickstart ) > CLOCKSWITCH_TIMEOUT_VALUE)
 80012d6:	f7ff fc65 	bl	8000ba4 <HAL_GetTick>
 80012da:	1bc0      	subs	r0, r0, r7
 80012dc:	4540      	cmp	r0, r8
 80012de:	d9f5      	bls.n	80012cc <HAL_RCC_ClockConfig+0xd8>
          return HAL_TIMEOUT;
 80012e0:	2003      	movs	r0, #3
 80012e2:	e8bd 81f0 	ldmia.w	sp!, {r4, r5, r6, r7, r8, pc}
    else if(RCC_ClkInitStruct->SYSCLKSource == RCC_SYSCLKSOURCE_PLLCLK)
 80012e6:	2a02      	cmp	r2, #2
 80012e8:	d102      	bne.n	80012f0 <HAL_RCC_ClockConfig+0xfc>
      if(__HAL_RCC_GET_FLAG(RCC_FLAG_PLLRDY) == RESET)
 80012ea:	f013 7f00 	tst.w	r3, #33554432	; 0x2000000
 80012ee:	e7df      	b.n	80012b0 <HAL_RCC_ClockConfig+0xbc>
      if(__HAL_RCC_GET_FLAG(RCC_FLAG_HSIRDY) == RESET)
 80012f0:	f013 0f02 	tst.w	r3, #2
 80012f4:	e7dc      	b.n	80012b0 <HAL_RCC_ClockConfig+0xbc>
    else if(RCC_ClkInitStruct->SYSCLKSource == RCC_SYSCLKSOURCE_PLLCLK)
 80012f6:	2b02      	cmp	r3, #2
 80012f8:	d10f      	bne.n	800131a <HAL_RCC_ClockConfig+0x126>
      while (__HAL_RCC_GET_SYSCLK_SOURCE() != RCC_SYSCLKSOURCE_STATUS_PLLCLK)
 80012fa:	6863      	ldr	r3, [r4, #4]
 80012fc:	f003 030c 	and.w	r3, r3, #12
 8001300:	2b08      	cmp	r3, #8
 8001302:	d086      	beq.n	8001212 <HAL_RCC_ClockConfig+0x1e>
        if((HAL_GetTick() - tickstart ) > CLOCKSWITCH_TIMEOUT_VALUE)
 8001304:	f7ff fc4e 	bl	8000ba4 <HAL_GetTick>
 8001308:	1bc0      	subs	r0, r0, r7
 800130a:	4540      	cmp	r0, r8
 800130c:	d9f5      	bls.n	80012fa <HAL_RCC_ClockConfig+0x106>
 800130e:	e7e7      	b.n	80012e0 <HAL_RCC_ClockConfig+0xec>
        if((HAL_GetTick() - tickstart ) > CLOCKSWITCH_TIMEOUT_VALUE)
 8001310:	f7ff fc48 	bl	8000ba4 <HAL_GetTick>
 8001314:	1bc0      	subs	r0, r0, r7
 8001316:	4540      	cmp	r0, r8
 8001318:	d8e2      	bhi.n	80012e0 <HAL_RCC_ClockConfig+0xec>
      while (__HAL_RCC_GET_SYSCLK_SOURCE() != RCC_SYSCLKSOURCE_STATUS_HSI)
 800131a:	6863      	ldr	r3, [r4, #4]
 800131c:	f013 0f0c 	tst.w	r3, #12
 8001320:	d1f6      	bne.n	8001310 <HAL_RCC_ClockConfig+0x11c>
 8001322:	e776      	b.n	8001212 <HAL_RCC_ClockConfig+0x1e>
    __HAL_FLASH_SET_LATENCY(FLatency);
 8001324:	6813      	ldr	r3, [r2, #0]
 8001326:	f023 0307 	bic.w	r3, r3, #7
 800132a:	4333      	orrs	r3, r6
 800132c:	6013      	str	r3, [r2, #0]
    if((FLASH->ACR & FLASH_ACR_LATENCY) != FLatency)
 800132e:	6813      	ldr	r3, [r2, #0]
 8001330:	f003 0307 	and.w	r3, r3, #7
 8001334:	429e      	cmp	r6, r3
 8001336:	d19c      	bne.n	8001272 <HAL_RCC_ClockConfig+0x7e>
 8001338:	e772      	b.n	8001220 <HAL_RCC_ClockConfig+0x2c>
    MODIFY_REG(RCC->CFGR, RCC_CFGR_PPRE1, RCC_ClkInitStruct->APB1CLKDivider);
 800133a:	6863      	ldr	r3, [r4, #4]
 800133c:	68e9      	ldr	r1, [r5, #12]
 800133e:	f423 63e0 	bic.w	r3, r3, #1792	; 0x700
 8001342:	430b      	orrs	r3, r1
 8001344:	6063      	str	r3, [r4, #4]
 8001346:	e771      	b.n	800122c <HAL_RCC_ClockConfig+0x38>
 8001348:	40022000 	.word	0x40022000
 800134c:	40021000 	.word	0x40021000
 8001350:	08003ca8 	.word	0x08003ca8
 8001354:	2000000c 	.word	0x2000000c

08001358 <HAL_RCC_GetPCLK1Freq>:
  return (HAL_RCC_GetHCLKFreq() >> APBPrescTable[(RCC->CFGR & RCC_CFGR_PPRE1) >> RCC_CFGR_PPRE1_Pos]);
 8001358:	4b04      	ldr	r3, [pc, #16]	; (800136c <HAL_RCC_GetPCLK1Freq+0x14>)
 800135a:	4a05      	ldr	r2, [pc, #20]	; (8001370 <HAL_RCC_GetPCLK1Freq+0x18>)
 800135c:	685b      	ldr	r3, [r3, #4]
 800135e:	f3c3 2302 	ubfx	r3, r3, #8, #3
 8001362:	5cd3      	ldrb	r3, [r2, r3]
 8001364:	4a03      	ldr	r2, [pc, #12]	; (8001374 <HAL_RCC_GetPCLK1Freq+0x1c>)
 8001366:	6810      	ldr	r0, [r2, #0]
}    
 8001368:	40d8      	lsrs	r0, r3
 800136a:	4770      	bx	lr
 800136c:	40021000 	.word	0x40021000
 8001370:	08003cb8 	.word	0x08003cb8
 8001374:	2000000c 	.word	0x2000000c

08001378 <HAL_RCC_GetPCLK2Freq>:
  return (HAL_RCC_GetHCLKFreq()>> APBPrescTable[(RCC->CFGR & RCC_CFGR_PPRE2) >> RCC_CFGR_PPRE2_Pos]);
 8001378:	4b04      	ldr	r3, [pc, #16]	; (800138c <HAL_RCC_GetPCLK2Freq+0x14>)
 800137a:	4a05      	ldr	r2, [pc, #20]	; (8001390 <HAL_RCC_GetPCLK2Freq+0x18>)
 800137c:	685b      	ldr	r3, [r3, #4]
 800137e:	f3c3 23c2 	ubfx	r3, r3, #11, #3
 8001382:	5cd3      	ldrb	r3, [r2, r3]
 8001384:	4a03      	ldr	r2, [pc, #12]	; (8001394 <HAL_RCC_GetPCLK2Freq+0x1c>)
 8001386:	6810      	ldr	r0, [r2, #0]
} 
 8001388:	40d8      	lsrs	r0, r3
 800138a:	4770      	bx	lr
 800138c:	40021000 	.word	0x40021000
 8001390:	08003cb8 	.word	0x08003cb8
 8001394:	2000000c 	.word	0x2000000c

08001398 <UART_SetConfig>:
  * @param  huart: pointer to a UART_HandleTypeDef structure that contains
  *                the configuration information for the specified UART module.
  * @retval None
  */
static void UART_SetConfig(UART_HandleTypeDef *huart)
{
 8001398:	e92d 47f0 	stmdb	sp!, {r4, r5, r6, r7, r8, r9, sl, lr}
  assert_param(IS_UART_MODE(huart->Init.Mode));

  /*------- UART-associated USART registers setting : CR2 Configuration ------*/
  /* Configure the UART Stop Bits: Set STOP[13:12] bits according 
   * to huart->Init.StopBits value */
  MODIFY_REG(huart->Instance->CR2, USART_CR2_STOP, huart->Init.StopBits);
 800139c:	6805      	ldr	r5, [r0, #0]
 800139e:	68c2      	ldr	r2, [r0, #12]
 80013a0:	692b      	ldr	r3, [r5, #16]
  tmpreg |= (uint32_t)huart->Init.WordLength | huart->Init.Parity | huart->Init.Mode | huart->Init.OverSampling;
  MODIFY_REG(huart->Instance->CR1, 
             (uint32_t)(USART_CR1_M | USART_CR1_PCE | USART_CR1_PS | USART_CR1_TE | USART_CR1_RE | USART_CR1_OVER8), 
             tmpreg);
#else
  tmpreg |= (uint32_t)huart->Init.WordLength | huart->Init.Parity | huart->Init.Mode;
 80013a2:	6901      	ldr	r1, [r0, #16]
  MODIFY_REG(huart->Instance->CR2, USART_CR2_STOP, huart->Init.StopBits);
 80013a4:	f423 5340 	bic.w	r3, r3, #12288	; 0x3000
 80013a8:	4313      	orrs	r3, r2
 80013aa:	612b      	str	r3, [r5, #16]
  tmpreg |= (uint32_t)huart->Init.WordLength | huart->Init.Parity | huart->Init.Mode;
 80013ac:	6883      	ldr	r3, [r0, #8]
  MODIFY_REG(huart->Instance->CR1, 
 80013ae:	68ea      	ldr	r2, [r5, #12]
  tmpreg |= (uint32_t)huart->Init.WordLength | huart->Init.Parity | huart->Init.Mode;
 80013b0:	430b      	orrs	r3, r1
 80013b2:	6941      	ldr	r1, [r0, #20]
  MODIFY_REG(huart->Instance->CR1, 
 80013b4:	f422 52b0 	bic.w	r2, r2, #5632	; 0x1600
 80013b8:	f022 020c 	bic.w	r2, r2, #12
  tmpreg |= (uint32_t)huart->Init.WordLength | huart->Init.Parity | huart->Init.Mode;
 80013bc:	430b      	orrs	r3, r1
  MODIFY_REG(huart->Instance->CR1, 
 80013be:	4313      	orrs	r3, r2
 80013c0:	60eb      	str	r3, [r5, #12]
             tmpreg);
#endif /* USART_CR1_OVER8 */

  /*------- UART-associated USART registers setting : CR3 Configuration ------*/
  /* Configure the UART HFC: Set CTSE and RTSE bits according to huart->Init.HwFlowCtl value */
  MODIFY_REG(huart->Instance->CR3, (USART_CR3_RTSE | USART_CR3_CTSE), huart->Init.HwFlowCtl);
 80013c2:	696b      	ldr	r3, [r5, #20]
 80013c4:	6982      	ldr	r2, [r0, #24]
 80013c6:	f423 7340 	bic.w	r3, r3, #768	; 0x300
 80013ca:	4313      	orrs	r3, r2
 80013cc:	616b      	str	r3, [r5, #20]
      huart->Instance->BRR = UART_BRR_SAMPLING16(HAL_RCC_GetPCLK1Freq(), huart->Init.BaudRate);
    }
  }
#else
  /*-------------------------- USART BRR Configuration ---------------------*/
  if(huart->Instance == USART1)
 80013ce:	4b40      	ldr	r3, [pc, #256]	; (80014d0 <UART_SetConfig+0x138>)
{
 80013d0:	4681      	mov	r9, r0
  if(huart->Instance == USART1)
 80013d2:	429d      	cmp	r5, r3
 80013d4:	f04f 0419 	mov.w	r4, #25
 80013d8:	d146      	bne.n	8001468 <UART_SetConfig+0xd0>
  {
    huart->Instance->BRR = UART_BRR_SAMPLING16(HAL_RCC_GetPCLK2Freq(), huart->Init.BaudRate);
 80013da:	f7ff ffcd 	bl	8001378 <HAL_RCC_GetPCLK2Freq>
 80013de:	fb04 f300 	mul.w	r3, r4, r0
 80013e2:	f8d9 6004 	ldr.w	r6, [r9, #4]
 80013e6:	f04f 0864 	mov.w	r8, #100	; 0x64
 80013ea:	00b6      	lsls	r6, r6, #2
 80013ec:	fbb3 f3f6 	udiv	r3, r3, r6
 80013f0:	fbb3 f3f8 	udiv	r3, r3, r8
 80013f4:	011e      	lsls	r6, r3, #4
 80013f6:	f7ff ffbf 	bl	8001378 <HAL_RCC_GetPCLK2Freq>
 80013fa:	4360      	muls	r0, r4
 80013fc:	f8d9 3004 	ldr.w	r3, [r9, #4]
 8001400:	009b      	lsls	r3, r3, #2
 8001402:	fbb0 f7f3 	udiv	r7, r0, r3
 8001406:	f7ff ffb7 	bl	8001378 <HAL_RCC_GetPCLK2Freq>
 800140a:	4360      	muls	r0, r4
 800140c:	f8d9 3004 	ldr.w	r3, [r9, #4]
 8001410:	009b      	lsls	r3, r3, #2
 8001412:	fbb0 f3f3 	udiv	r3, r0, r3
 8001416:	fbb3 f3f8 	udiv	r3, r3, r8
 800141a:	fb08 7313 	mls	r3, r8, r3, r7
 800141e:	011b      	lsls	r3, r3, #4
 8001420:	3332      	adds	r3, #50	; 0x32
 8001422:	fbb3 f3f8 	udiv	r3, r3, r8
 8001426:	f003 07f0 	and.w	r7, r3, #240	; 0xf0
 800142a:	f7ff ffa5 	bl	8001378 <HAL_RCC_GetPCLK2Freq>
 800142e:	4360      	muls	r0, r4
 8001430:	f8d9 2004 	ldr.w	r2, [r9, #4]
 8001434:	0092      	lsls	r2, r2, #2
 8001436:	fbb0 faf2 	udiv	sl, r0, r2
 800143a:	f7ff ff9d 	bl	8001378 <HAL_RCC_GetPCLK2Freq>
  }
  else
  {
    huart->Instance->BRR = UART_BRR_SAMPLING16(HAL_RCC_GetPCLK1Freq(), huart->Init.BaudRate);
 800143e:	4360      	muls	r0, r4
 8001440:	f8d9 3004 	ldr.w	r3, [r9, #4]
 8001444:	009b      	lsls	r3, r3, #2
 8001446:	fbb0 f3f3 	udiv	r3, r0, r3
 800144a:	fbb3 f3f8 	udiv	r3, r3, r8
 800144e:	fb08 a313 	mls	r3, r8, r3, sl
 8001452:	011b      	lsls	r3, r3, #4
 8001454:	3332      	adds	r3, #50	; 0x32
 8001456:	fbb3 f3f8 	udiv	r3, r3, r8
 800145a:	f003 030f 	and.w	r3, r3, #15
 800145e:	433b      	orrs	r3, r7
 8001460:	4433      	add	r3, r6
 8001462:	60ab      	str	r3, [r5, #8]
 8001464:	e8bd 87f0 	ldmia.w	sp!, {r4, r5, r6, r7, r8, r9, sl, pc}
 8001468:	f7ff ff76 	bl	8001358 <HAL_RCC_GetPCLK1Freq>
 800146c:	fb04 f300 	mul.w	r3, r4, r0
 8001470:	f8d9 6004 	ldr.w	r6, [r9, #4]
 8001474:	f04f 0864 	mov.w	r8, #100	; 0x64
 8001478:	00b6      	lsls	r6, r6, #2
 800147a:	fbb3 f3f6 	udiv	r3, r3, r6
 800147e:	fbb3 f3f8 	udiv	r3, r3, r8
 8001482:	011e      	lsls	r6, r3, #4
 8001484:	f7ff ff68 	bl	8001358 <HAL_RCC_GetPCLK1Freq>
 8001488:	4360      	muls	r0, r4
 800148a:	f8d9 3004 	ldr.w	r3, [r9, #4]
 800148e:	009b      	lsls	r3, r3, #2
 8001490:	fbb0 f7f3 	udiv	r7, r0, r3
 8001494:	f7ff ff60 	bl	8001358 <HAL_RCC_GetPCLK1Freq>
 8001498:	4360      	muls	r0, r4
 800149a:	f8d9 3004 	ldr.w	r3, [r9, #4]
 800149e:	009b      	lsls	r3, r3, #2
 80014a0:	fbb0 f3f3 	udiv	r3, r0, r3
 80014a4:	fbb3 f3f8 	udiv	r3, r3, r8
 80014a8:	fb08 7313 	mls	r3, r8, r3, r7
 80014ac:	011b      	lsls	r3, r3, #4
 80014ae:	3332      	adds	r3, #50	; 0x32
 80014b0:	fbb3 f3f8 	udiv	r3, r3, r8
 80014b4:	f003 07f0 	and.w	r7, r3, #240	; 0xf0
 80014b8:	f7ff ff4e 	bl	8001358 <HAL_RCC_GetPCLK1Freq>
 80014bc:	4360      	muls	r0, r4
 80014be:	f8d9 2004 	ldr.w	r2, [r9, #4]
 80014c2:	0092      	lsls	r2, r2, #2
 80014c4:	fbb0 faf2 	udiv	sl, r0, r2
 80014c8:	f7ff ff46 	bl	8001358 <HAL_RCC_GetPCLK1Freq>
 80014cc:	e7b7      	b.n	800143e <UART_SetConfig+0xa6>
 80014ce:	bf00      	nop
 80014d0:	40013800 	.word	0x40013800

080014d4 <UART_WaitOnFlagUntilTimeout.constprop.3>:
static HAL_StatusTypeDef UART_WaitOnFlagUntilTimeout(UART_HandleTypeDef *huart, uint32_t Flag, FlagStatus Status, uint32_t Tickstart, uint32_t Timeout)
 80014d4:	b5f8      	push	{r3, r4, r5, r6, r7, lr}
 80014d6:	4604      	mov	r4, r0
 80014d8:	460e      	mov	r6, r1
 80014da:	4617      	mov	r7, r2
 80014dc:	461d      	mov	r5, r3
  while((__HAL_UART_GET_FLAG(huart, Flag) ? SET : RESET) == Status) 
 80014de:	6821      	ldr	r1, [r4, #0]
 80014e0:	680b      	ldr	r3, [r1, #0]
 80014e2:	ea36 0303 	bics.w	r3, r6, r3
 80014e6:	d101      	bne.n	80014ec <UART_WaitOnFlagUntilTimeout.constprop.3+0x18>
  return HAL_OK;
 80014e8:	2000      	movs	r0, #0
}
 80014ea:	bdf8      	pop	{r3, r4, r5, r6, r7, pc}
    if(Timeout != HAL_MAX_DELAY)
 80014ec:	1c6b      	adds	r3, r5, #1
 80014ee:	d0f7      	beq.n	80014e0 <UART_WaitOnFlagUntilTimeout.constprop.3+0xc>
      if((Timeout == 0U)||((HAL_GetTick() - Tickstart ) > Timeout))
 80014f0:	b995      	cbnz	r5, 8001518 <UART_WaitOnFlagUntilTimeout.constprop.3+0x44>
        CLEAR_BIT(huart->Instance->CR1, (USART_CR1_RXNEIE | USART_CR1_PEIE | USART_CR1_TXEIE));
 80014f2:	6823      	ldr	r3, [r4, #0]
        __HAL_UNLOCK(huart);
 80014f4:	2003      	movs	r0, #3
        CLEAR_BIT(huart->Instance->CR1, (USART_CR1_RXNEIE | USART_CR1_PEIE | USART_CR1_TXEIE));
 80014f6:	68da      	ldr	r2, [r3, #12]
 80014f8:	f422 72d0 	bic.w	r2, r2, #416	; 0x1a0
 80014fc:	60da      	str	r2, [r3, #12]
        CLEAR_BIT(huart->Instance->CR3, USART_CR3_EIE);
 80014fe:	695a      	ldr	r2, [r3, #20]
 8001500:	f022 0201 	bic.w	r2, r2, #1
 8001504:	615a      	str	r2, [r3, #20]
        huart->gState  = HAL_UART_STATE_READY;
 8001506:	2320      	movs	r3, #32
 8001508:	f884 3039 	strb.w	r3, [r4, #57]	; 0x39
        huart->RxState = HAL_UART_STATE_READY;
 800150c:	f884 303a 	strb.w	r3, [r4, #58]	; 0x3a
        __HAL_UNLOCK(huart);
 8001510:	2300      	movs	r3, #0
 8001512:	f884 3038 	strb.w	r3, [r4, #56]	; 0x38
 8001516:	bdf8      	pop	{r3, r4, r5, r6, r7, pc}
      if((Timeout == 0U)||((HAL_GetTick() - Tickstart ) > Timeout))
 8001518:	f7ff fb44 	bl	8000ba4 <HAL_GetTick>
 800151c:	1bc0      	subs	r0, r0, r7
 800151e:	4285      	cmp	r5, r0
 8001520:	d2dd      	bcs.n	80014de <UART_WaitOnFlagUntilTimeout.constprop.3+0xa>
 8001522:	e7e6      	b.n	80014f2 <UART_WaitOnFlagUntilTimeout.constprop.3+0x1e>

08001524 <HAL_UART_Init>:
{
 8001524:	b510      	push	{r4, lr}
  if(huart == NULL)
 8001526:	4604      	mov	r4, r0
 8001528:	b340      	cbz	r0, 800157c <HAL_UART_Init+0x58>
  if(huart->gState == HAL_UART_STATE_RESET)
 800152a:	f890 3039 	ldrb.w	r3, [r0, #57]	; 0x39
 800152e:	f003 02ff 	and.w	r2, r3, #255	; 0xff
 8001532:	b91b      	cbnz	r3, 800153c <HAL_UART_Init+0x18>
    huart->Lock = HAL_UNLOCKED;
 8001534:	f880 2038 	strb.w	r2, [r0, #56]	; 0x38
    HAL_UART_MspInit(huart);
 8001538:	f000 fa4c 	bl	80019d4 <HAL_UART_MspInit>
  huart->gState = HAL_UART_STATE_BUSY;
 800153c:	2324      	movs	r3, #36	; 0x24
  __HAL_UART_DISABLE(huart);
 800153e:	6822      	ldr	r2, [r4, #0]
  huart->gState = HAL_UART_STATE_BUSY;
 8001540:	f884 3039 	strb.w	r3, [r4, #57]	; 0x39
  __HAL_UART_DISABLE(huart);
 8001544:	68d3      	ldr	r3, [r2, #12]
  UART_SetConfig(huart);
 8001546:	4620      	mov	r0, r4
  __HAL_UART_DISABLE(huart);
 8001548:	f423 5300 	bic.w	r3, r3, #8192	; 0x2000
 800154c:	60d3      	str	r3, [r2, #12]
  UART_SetConfig(huart);
 800154e:	f7ff ff23 	bl	8001398 <UART_SetConfig>
  CLEAR_BIT(huart->Instance->CR2, (USART_CR2_LINEN | USART_CR2_CLKEN));
 8001552:	6823      	ldr	r3, [r4, #0]
  huart->ErrorCode = HAL_UART_ERROR_NONE;
 8001554:	2000      	movs	r0, #0
  CLEAR_BIT(huart->Instance->CR2, (USART_CR2_LINEN | USART_CR2_CLKEN));
 8001556:	691a      	ldr	r2, [r3, #16]
 8001558:	f422 4290 	bic.w	r2, r2, #18432	; 0x4800
 800155c:	611a      	str	r2, [r3, #16]
  CLEAR_BIT(huart->Instance->CR3, (USART_CR3_SCEN | USART_CR3_HDSEL | USART_CR3_IREN));
 800155e:	695a      	ldr	r2, [r3, #20]
 8001560:	f022 022a 	bic.w	r2, r2, #42	; 0x2a
 8001564:	615a      	str	r2, [r3, #20]
  __HAL_UART_ENABLE(huart);
 8001566:	68da      	ldr	r2, [r3, #12]
 8001568:	f442 5200 	orr.w	r2, r2, #8192	; 0x2000
 800156c:	60da      	str	r2, [r3, #12]
  huart->gState= HAL_UART_STATE_READY;
 800156e:	2320      	movs	r3, #32
  huart->ErrorCode = HAL_UART_ERROR_NONE;
 8001570:	63e0      	str	r0, [r4, #60]	; 0x3c
  huart->gState= HAL_UART_STATE_READY;
 8001572:	f884 3039 	strb.w	r3, [r4, #57]	; 0x39
  huart->RxState= HAL_UART_STATE_READY;
 8001576:	f884 303a 	strb.w	r3, [r4, #58]	; 0x3a
  return HAL_OK;
 800157a:	bd10      	pop	{r4, pc}
    return HAL_ERROR;
 800157c:	2001      	movs	r0, #1
}
 800157e:	bd10      	pop	{r4, pc}

08001580 <HAL_UART_Transmit>:
{
 8001580:	e92d 41f0 	stmdb	sp!, {r4, r5, r6, r7, r8, lr}
 8001584:	461f      	mov	r7, r3
  if(huart->gState == HAL_UART_STATE_READY)
 8001586:	f890 3039 	ldrb.w	r3, [r0, #57]	; 0x39
{
 800158a:	4604      	mov	r4, r0
  if(huart->gState == HAL_UART_STATE_READY)
 800158c:	2b20      	cmp	r3, #32
{
 800158e:	460d      	mov	r5, r1
 8001590:	4690      	mov	r8, r2
  if(huart->gState == HAL_UART_STATE_READY)
 8001592:	d14e      	bne.n	8001632 <HAL_UART_Transmit+0xb2>
    if((pData == NULL) || (Size == 0U))
 8001594:	2900      	cmp	r1, #0
 8001596:	d049      	beq.n	800162c <HAL_UART_Transmit+0xac>
 8001598:	2a00      	cmp	r2, #0
 800159a:	d047      	beq.n	800162c <HAL_UART_Transmit+0xac>
    __HAL_LOCK(huart);
 800159c:	f890 3038 	ldrb.w	r3, [r0, #56]	; 0x38
 80015a0:	2b01      	cmp	r3, #1
 80015a2:	d046      	beq.n	8001632 <HAL_UART_Transmit+0xb2>
 80015a4:	2301      	movs	r3, #1
 80015a6:	f880 3038 	strb.w	r3, [r0, #56]	; 0x38
    huart->ErrorCode = HAL_UART_ERROR_NONE;
 80015aa:	2300      	movs	r3, #0
 80015ac:	63c3      	str	r3, [r0, #60]	; 0x3c
    huart->gState = HAL_UART_STATE_BUSY_TX;
 80015ae:	2321      	movs	r3, #33	; 0x21
 80015b0:	f880 3039 	strb.w	r3, [r0, #57]	; 0x39
    tickstart = HAL_GetTick();
 80015b4:	f7ff faf6 	bl	8000ba4 <HAL_GetTick>
 80015b8:	4606      	mov	r6, r0
    huart->TxXferSize = Size;
 80015ba:	f8a4 8024 	strh.w	r8, [r4, #36]	; 0x24
    huart->TxXferCount = Size;
 80015be:	f8a4 8026 	strh.w	r8, [r4, #38]	; 0x26
    while(huart->TxXferCount > 0U)
 80015c2:	8ce3      	ldrh	r3, [r4, #38]	; 0x26
 80015c4:	b29b      	uxth	r3, r3
 80015c6:	b96b      	cbnz	r3, 80015e4 <HAL_UART_Transmit+0x64>
    if(UART_WaitOnFlagUntilTimeout(huart, UART_FLAG_TC, RESET, tickstart, Timeout) != HAL_OK)
 80015c8:	463b      	mov	r3, r7
 80015ca:	4632      	mov	r2, r6
 80015cc:	2140      	movs	r1, #64	; 0x40
 80015ce:	4620      	mov	r0, r4
 80015d0:	f7ff ff80 	bl	80014d4 <UART_WaitOnFlagUntilTimeout.constprop.3>
 80015d4:	b9a8      	cbnz	r0, 8001602 <HAL_UART_Transmit+0x82>
    huart->gState = HAL_UART_STATE_READY;
 80015d6:	2320      	movs	r3, #32
    __HAL_UNLOCK(huart);
 80015d8:	f884 0038 	strb.w	r0, [r4, #56]	; 0x38
    huart->gState = HAL_UART_STATE_READY;
 80015dc:	f884 3039 	strb.w	r3, [r4, #57]	; 0x39
    return HAL_OK;
 80015e0:	e8bd 81f0 	ldmia.w	sp!, {r4, r5, r6, r7, r8, pc}
      huart->TxXferCount--;
 80015e4:	8ce3      	ldrh	r3, [r4, #38]	; 0x26
        if(UART_WaitOnFlagUntilTimeout(huart, UART_FLAG_TXE, RESET, tickstart, Timeout) != HAL_OK)
 80015e6:	4632      	mov	r2, r6
      huart->TxXferCount--;
 80015e8:	3b01      	subs	r3, #1
 80015ea:	b29b      	uxth	r3, r3
 80015ec:	84e3      	strh	r3, [r4, #38]	; 0x26
      if(huart->Init.WordLength == UART_WORDLENGTH_9B)
 80015ee:	68a3      	ldr	r3, [r4, #8]
        if(UART_WaitOnFlagUntilTimeout(huart, UART_FLAG_TXE, RESET, tickstart, Timeout) != HAL_OK)
 80015f0:	2180      	movs	r1, #128	; 0x80
      if(huart->Init.WordLength == UART_WORDLENGTH_9B)
 80015f2:	f5b3 5f80 	cmp.w	r3, #4096	; 0x1000
        if(UART_WaitOnFlagUntilTimeout(huart, UART_FLAG_TXE, RESET, tickstart, Timeout) != HAL_OK)
 80015f6:	4620      	mov	r0, r4
 80015f8:	463b      	mov	r3, r7
      if(huart->Init.WordLength == UART_WORDLENGTH_9B)
 80015fa:	d10e      	bne.n	800161a <HAL_UART_Transmit+0x9a>
        if(UART_WaitOnFlagUntilTimeout(huart, UART_FLAG_TXE, RESET, tickstart, Timeout) != HAL_OK)
 80015fc:	f7ff ff6a 	bl	80014d4 <UART_WaitOnFlagUntilTimeout.constprop.3>
 8001600:	b110      	cbz	r0, 8001608 <HAL_UART_Transmit+0x88>
          return HAL_TIMEOUT;
 8001602:	2003      	movs	r0, #3
 8001604:	e8bd 81f0 	ldmia.w	sp!, {r4, r5, r6, r7, r8, pc}
        huart->Instance->DR = (*tmp & (uint16_t)0x01FF);
 8001608:	882b      	ldrh	r3, [r5, #0]
 800160a:	6822      	ldr	r2, [r4, #0]
 800160c:	f3c3 0308 	ubfx	r3, r3, #0, #9
 8001610:	6053      	str	r3, [r2, #4]
        if(huart->Init.Parity == UART_PARITY_NONE)
 8001612:	6923      	ldr	r3, [r4, #16]
 8001614:	b943      	cbnz	r3, 8001628 <HAL_UART_Transmit+0xa8>
          pData +=2U;
 8001616:	3502      	adds	r5, #2
 8001618:	e7d3      	b.n	80015c2 <HAL_UART_Transmit+0x42>
        if(UART_WaitOnFlagUntilTimeout(huart, UART_FLAG_TXE, RESET, tickstart, Timeout) != HAL_OK)
 800161a:	f7ff ff5b 	bl	80014d4 <UART_WaitOnFlagUntilTimeout.constprop.3>
 800161e:	2800      	cmp	r0, #0
 8001620:	d1ef      	bne.n	8001602 <HAL_UART_Transmit+0x82>
        huart->Instance->DR = (*pData++ & (uint8_t)0xFF);
 8001622:	6823      	ldr	r3, [r4, #0]
 8001624:	782a      	ldrb	r2, [r5, #0]
 8001626:	605a      	str	r2, [r3, #4]
 8001628:	3501      	adds	r5, #1
 800162a:	e7ca      	b.n	80015c2 <HAL_UART_Transmit+0x42>
      return  HAL_ERROR;
 800162c:	2001      	movs	r0, #1
 800162e:	e8bd 81f0 	ldmia.w	sp!, {r4, r5, r6, r7, r8, pc}
    return HAL_BUSY;
 8001632:	2002      	movs	r0, #2
}
 8001634:	e8bd 81f0 	ldmia.w	sp!, {r4, r5, r6, r7, r8, pc}

08001638 <DWT_Init>:

uint32_t DELAY_WAIT_CONVERT = DELAY_T_CONVERT;

void DWT_Init(void)
{
    SCB_DEMCR |= CoreDebug_DEMCR_TRCENA_Msk; //   
 8001638:	4a05      	ldr	r2, [pc, #20]	; (8001650 <DWT_Init+0x18>)
 800163a:	6813      	ldr	r3, [r2, #0]
 800163c:	f043 7380 	orr.w	r3, r3, #16777216	; 0x1000000
 8001640:	6013      	str	r3, [r2, #0]
	DWT_CONTROL |= DWT_CTRL_CYCCNTENA_Msk;   //  
 8001642:	4a04      	ldr	r2, [pc, #16]	; (8001654 <DWT_Init+0x1c>)
 8001644:	6813      	ldr	r3, [r2, #0]
 8001646:	f043 0301 	orr.w	r3, r3, #1
 800164a:	6013      	str	r3, [r2, #0]
 800164c:	4770      	bx	lr
 800164e:	bf00      	nop
 8001650:	e000edfc 	.word	0xe000edfc
 8001654:	e0001000 	.word	0xe0001000

08001658 <delay_us>:
}

void delay_us(uint32_t us)
{
    uint32_t us_count_tic =  us * (SystemCoreClock / 1000000);
 8001658:	4b06      	ldr	r3, [pc, #24]	; (8001674 <delay_us+0x1c>)
 800165a:	4a07      	ldr	r2, [pc, #28]	; (8001678 <delay_us+0x20>)
 800165c:	681b      	ldr	r3, [r3, #0]
 800165e:	fbb3 f3f2 	udiv	r3, r3, r2
    DWT->CYCCNT = 0U; //  
 8001662:	2200      	movs	r2, #0
    uint32_t us_count_tic =  us * (SystemCoreClock / 1000000);
 8001664:	4358      	muls	r0, r3
    DWT->CYCCNT = 0U; //  
 8001666:	4b05      	ldr	r3, [pc, #20]	; (800167c <delay_us+0x24>)
 8001668:	605a      	str	r2, [r3, #4]
    while(DWT->CYCCNT < us_count_tic);
 800166a:	685a      	ldr	r2, [r3, #4]
 800166c:	4290      	cmp	r0, r2
 800166e:	d8fc      	bhi.n	800166a <delay_us+0x12>
}
 8001670:	4770      	bx	lr
 8001672:	bf00      	nop
 8001674:	2000000c 	.word	0x2000000c
 8001678:	000f4240 	.word	0x000f4240
 800167c:	e0001000 	.word	0xe0001000

08001680 <reset>:
	DWT_Init();
	setResolution(resolution);
}

void reset()
{
 8001680:	b510      	push	{r4, lr}
	HAL_GPIO_WritePin(MY_PORT, MY_PIN, GPIO_PIN_RESET);
 8001682:	4c0a      	ldr	r4, [pc, #40]	; (80016ac <reset+0x2c>)
 8001684:	2200      	movs	r2, #0
 8001686:	2120      	movs	r1, #32
 8001688:	4620      	mov	r0, r4
 800168a:	f7ff fbe5 	bl	8000e58 <HAL_GPIO_WritePin>
	delay_us(DELAY_RESET);
 800168e:	f44f 70fa 	mov.w	r0, #500	; 0x1f4
 8001692:	f7ff ffe1 	bl	8001658 <delay_us>
	HAL_GPIO_WritePin(MY_PORT, MY_PIN, GPIO_PIN_SET);
 8001696:	4620      	mov	r0, r4
 8001698:	2201      	movs	r2, #1
 800169a:	2120      	movs	r1, #32
 800169c:	f7ff fbdc 	bl	8000e58 <HAL_GPIO_WritePin>
	delay_us(DELAY_RESET);
}
 80016a0:	e8bd 4010 	ldmia.w	sp!, {r4, lr}
	delay_us(DELAY_RESET);
 80016a4:	f44f 70fa 	mov.w	r0, #500	; 0x1f4
 80016a8:	f7ff bfd6 	b.w	8001658 <delay_us>
 80016ac:	40010c00 	.word	0x40010c00

080016b0 <getDevider>:

uint8_t getDevider(DS18B20_Resolution resolution)
{
	uint8_t devider;
	switch (resolution)
 80016b0:	283f      	cmp	r0, #63	; 0x3f
 80016b2:	d006      	beq.n	80016c2 <getDevider+0x12>
 80016b4:	285f      	cmp	r0, #95	; 0x5f
 80016b6:	d006      	beq.n	80016c6 <getDevider+0x16>
 80016b8:	281f      	cmp	r0, #31
		case DS18B20_Resolution_11_bit:
			devider = 2;
			break;
		case DS18B20_Resolution_12_bit:
		default:
			devider = 1;
 80016ba:	bf0c      	ite	eq
 80016bc:	2008      	moveq	r0, #8
 80016be:	2001      	movne	r0, #1
 80016c0:	4770      	bx	lr
			devider = 4;
 80016c2:	2004      	movs	r0, #4
 80016c4:	4770      	bx	lr
			devider = 2;
 80016c6:	2002      	movs	r0, #2
			break;
	}

	return devider;
}
 80016c8:	4770      	bx	lr
	...

080016cc <writeBit>:

void writeBit(uint8_t bit)
{
 80016cc:	b510      	push	{r4, lr}
 80016ce:	4604      	mov	r4, r0
	HAL_GPIO_WritePin(MY_PORT, MY_PIN, GPIO_PIN_RESET);
 80016d0:	2200      	movs	r2, #0
 80016d2:	480c      	ldr	r0, [pc, #48]	; (8001704 <writeBit+0x38>)
 80016d4:	2120      	movs	r1, #32
 80016d6:	f7ff fbbf 	bl	8000e58 <HAL_GPIO_WritePin>
	delay_us(bit ? DELAY_WRITE_1 : DELAY_WRITE_0);
 80016da:	2c00      	cmp	r4, #0
 80016dc:	bf14      	ite	ne
 80016de:	200a      	movne	r0, #10
 80016e0:	203c      	moveq	r0, #60	; 0x3c
 80016e2:	f7ff ffb9 	bl	8001658 <delay_us>
	HAL_GPIO_WritePin(MY_PORT, MY_PIN, GPIO_PIN_SET);
 80016e6:	4807      	ldr	r0, [pc, #28]	; (8001704 <writeBit+0x38>)
 80016e8:	2201      	movs	r2, #1
 80016ea:	2120      	movs	r1, #32
 80016ec:	f7ff fbb4 	bl	8000e58 <HAL_GPIO_WritePin>
	delay_us(bit ? DELAY_WRITE_1_PAUSE : DELAY_WRITE_0_PAUSE);
 80016f0:	2c00      	cmp	r4, #0
 80016f2:	bf18      	it	ne
 80016f4:	203c      	movne	r0, #60	; 0x3c
}
 80016f6:	e8bd 4010 	ldmia.w	sp!, {r4, lr}
	delay_us(bit ? DELAY_WRITE_1_PAUSE : DELAY_WRITE_0_PAUSE);
 80016fa:	bf08      	it	eq
 80016fc:	200a      	moveq	r0, #10
 80016fe:	f7ff bfab 	b.w	8001658 <delay_us>
 8001702:	bf00      	nop
 8001704:	40010c00 	.word	0x40010c00

08001708 <writeByte>:

void writeByte(uint8_t data)
{
 8001708:	b538      	push	{r3, r4, r5, lr}
 800170a:	4605      	mov	r5, r0
 800170c:	2400      	movs	r4, #0
	for (uint8_t i = 0; i < 8; i++)
	{
		writeBit(data >> i & 1);
 800170e:	fa45 f004 	asr.w	r0, r5, r4
 8001712:	f000 0001 	and.w	r0, r0, #1
 8001716:	f7ff ffd9 	bl	80016cc <writeBit>
 800171a:	3401      	adds	r4, #1
		delay_us(DELAT_PROTECTION);
 800171c:	2005      	movs	r0, #5
 800171e:	f7ff ff9b 	bl	8001658 <delay_us>
	for (uint8_t i = 0; i < 8; i++)
 8001722:	2c08      	cmp	r4, #8
 8001724:	d1f3      	bne.n	800170e <writeByte+0x6>
	}
}
 8001726:	bd38      	pop	{r3, r4, r5, pc}

08001728 <readBit>:

uint8_t readBit()
{
 8001728:	b510      	push	{r4, lr}
	uint8_t bit = 0;
	HAL_GPIO_WritePin(MY_PORT, MY_PIN, GPIO_PIN_RESET);
 800172a:	4c0e      	ldr	r4, [pc, #56]	; (8001764 <readBit+0x3c>)
 800172c:	2200      	movs	r2, #0
 800172e:	2120      	movs	r1, #32
 8001730:	4620      	mov	r0, r4
 8001732:	f7ff fb91 	bl	8000e58 <HAL_GPIO_WritePin>
	delay_us(DELAY_READ_SLOT);
 8001736:	200a      	movs	r0, #10
 8001738:	f7ff ff8e 	bl	8001658 <delay_us>
	HAL_GPIO_WritePin(MY_PORT, MY_PIN, GPIO_PIN_SET);
 800173c:	2201      	movs	r2, #1
 800173e:	2120      	movs	r1, #32
 8001740:	4620      	mov	r0, r4
 8001742:	f7ff fb89 	bl	8000e58 <HAL_GPIO_WritePin>
	delay_us(DELAY_BUS_RELAX);
 8001746:	200a      	movs	r0, #10
 8001748:	f7ff ff86 	bl	8001658 <delay_us>
	bit = (HAL_GPIO_ReadPin(MY_PORT, MY_PIN) ? 1 : 0);
 800174c:	2120      	movs	r1, #32
 800174e:	4620      	mov	r0, r4
 8001750:	f7ff fb7c 	bl	8000e4c <HAL_GPIO_ReadPin>
 8001754:	4601      	mov	r1, r0
	delay_us(DELAY_READ_PAUSE);
 8001756:	2032      	movs	r0, #50	; 0x32
 8001758:	f7ff ff7e 	bl	8001658 <delay_us>
	return bit;
}
 800175c:	1c08      	adds	r0, r1, #0
 800175e:	bf18      	it	ne
 8001760:	2001      	movne	r0, #1
 8001762:	bd10      	pop	{r4, pc}
 8001764:	40010c00 	.word	0x40010c00

08001768 <readTemperature>:

int16_t readTemperature()
{
 8001768:	b538      	push	{r3, r4, r5, lr}
 800176a:	2500      	movs	r5, #0
	int16_t data = 0;
 800176c:	462c      	mov	r4, r5
	for (uint8_t i = 0; i < 16; i++)
	{
		data += (int16_t) readBit() << i;
 800176e:	f7ff ffdb 	bl	8001728 <readBit>
 8001772:	40a8      	lsls	r0, r5
 8001774:	3501      	adds	r5, #1
 8001776:	4404      	add	r4, r0
	for (uint8_t i = 0; i < 16; i++)
 8001778:	2d10      	cmp	r5, #16
		data += (int16_t) readBit() << i;
 800177a:	b224      	sxth	r4, r4
	for (uint8_t i = 0; i < 16; i++)
 800177c:	d1f7      	bne.n	800176e <readTemperature+0x6>
	}

	//return  (uint16_t)(((float) data / 16.0) * 10.0);
	return data;
}
 800177e:	4620      	mov	r0, r4
 8001780:	bd38      	pop	{r3, r4, r5, pc}
	...

08001784 <ds18b20_getTemperature>:

int16_t ds18b20_getTemperature()
{
 8001784:	b508      	push	{r3, lr}
	reset();
 8001786:	f7ff ff7b 	bl	8001680 <reset>
	writeByte(SKIP_ROM);
 800178a:	20cc      	movs	r0, #204	; 0xcc
 800178c:	f7ff ffbc 	bl	8001708 <writeByte>
	writeByte(CONVERT_T);
 8001790:	2044      	movs	r0, #68	; 0x44
 8001792:	f7ff ffb9 	bl	8001708 <writeByte>
	delay_us(DELAY_WAIT_CONVERT);
 8001796:	4b08      	ldr	r3, [pc, #32]	; (80017b8 <ds18b20_getTemperature+0x34>)
 8001798:	6818      	ldr	r0, [r3, #0]
 800179a:	f7ff ff5d 	bl	8001658 <delay_us>

	reset();
 800179e:	f7ff ff6f 	bl	8001680 <reset>
	writeByte(SKIP_ROM);
 80017a2:	20cc      	movs	r0, #204	; 0xcc
 80017a4:	f7ff ffb0 	bl	8001708 <writeByte>
	writeByte(READ_SCRATCHPAD);
 80017a8:	20be      	movs	r0, #190	; 0xbe
 80017aa:	f7ff ffad 	bl	8001708 <writeByte>

	return readTemperature();
}
 80017ae:	e8bd 4008 	ldmia.w	sp!, {r3, lr}
	return readTemperature();
 80017b2:	f7ff bfd9 	b.w	8001768 <readTemperature>
 80017b6:	bf00      	nop
 80017b8:	20000008 	.word	0x20000008

080017bc <setResolution>:

void setResolution(DS18B20_Resolution resolution)
{
 80017bc:	b510      	push	{r4, lr}
 80017be:	4604      	mov	r4, r0
	reset();
 80017c0:	f7ff ff5e 	bl	8001680 <reset>
	writeByte(SKIP_ROM);
 80017c4:	20cc      	movs	r0, #204	; 0xcc
 80017c6:	f7ff ff9f 	bl	8001708 <writeByte>
	writeByte(WRITE_SCRATCHPAD);
 80017ca:	204e      	movs	r0, #78	; 0x4e
 80017cc:	f7ff ff9c 	bl	8001708 <writeByte>
	writeByte(TH_REGISTER);
 80017d0:	204b      	movs	r0, #75	; 0x4b
 80017d2:	f7ff ff99 	bl	8001708 <writeByte>
	writeByte(TL_REGISTER);
 80017d6:	2046      	movs	r0, #70	; 0x46
 80017d8:	f7ff ff96 	bl	8001708 <writeByte>
	writeByte(resolution);
 80017dc:	4620      	mov	r0, r4
 80017de:	f7ff ff93 	bl	8001708 <writeByte>
	DELAY_WAIT_CONVERT = DELAY_T_CONVERT / getDevider(resolution);
 80017e2:	4620      	mov	r0, r4
 80017e4:	f7ff ff64 	bl	80016b0 <getDevider>
 80017e8:	4b02      	ldr	r3, [pc, #8]	; (80017f4 <setResolution+0x38>)
 80017ea:	fb93 f0f0 	sdiv	r0, r3, r0
 80017ee:	4b02      	ldr	r3, [pc, #8]	; (80017f8 <setResolution+0x3c>)
 80017f0:	6018      	str	r0, [r3, #0]
 80017f2:	bd10      	pop	{r4, pc}
 80017f4:	000b98c0 	.word	0x000b98c0
 80017f8:	20000008 	.word	0x20000008

080017fc <Init_ds18b20>:
{
 80017fc:	b508      	push	{r3, lr}
	DWT_Init();
 80017fe:	f7ff ff1b 	bl	8001638 <DWT_Init>
}
 8001802:	e8bd 4008 	ldmia.w	sp!, {r3, lr}
	setResolution(resolution);
 8001806:	f7ff bfd9 	b.w	80017bc <setResolution>

0800180a <SystemClock_Config>:
/**
  * @brief System Clock Configuration
  * @retval None
  */
void SystemClock_Config(void)
{
 800180a:	b510      	push	{r4, lr}
 800180c:	b090      	sub	sp, #64	; 0x40
  RCC_OscInitTypeDef RCC_OscInitStruct = {0};
 800180e:	2228      	movs	r2, #40	; 0x28
 8001810:	2100      	movs	r1, #0
 8001812:	a806      	add	r0, sp, #24
 8001814:	f000 f994 	bl	8001b40 <memset>
  RCC_ClkInitTypeDef RCC_ClkInitStruct = {0};
 8001818:	2100      	movs	r1, #0
 800181a:	2214      	movs	r2, #20
 800181c:	a801      	add	r0, sp, #4
 800181e:	f000 f98f 	bl	8001b40 <memset>

  /**Initializes the CPU, AHB and APB busses clocks 
  */
  RCC_OscInitStruct.OscillatorType = RCC_OSCILLATORTYPE_HSE;
  RCC_OscInitStruct.HSEState = RCC_HSE_ON;
 8001822:	f44f 3380 	mov.w	r3, #65536	; 0x10000
  RCC_OscInitStruct.OscillatorType = RCC_OSCILLATORTYPE_HSE;
 8001826:	2201      	movs	r2, #1
  RCC_OscInitStruct.HSEPredivValue = RCC_HSE_PREDIV_DIV1;
  RCC_OscInitStruct.HSIState = RCC_HSI_ON;
  RCC_OscInitStruct.PLL.PLLState = RCC_PLL_ON;
 8001828:	2402      	movs	r4, #2
  RCC_OscInitStruct.HSEState = RCC_HSE_ON;
 800182a:	9307      	str	r3, [sp, #28]
  RCC_OscInitStruct.PLL.PLLSource = RCC_PLLSOURCE_HSE;
 800182c:	930e      	str	r3, [sp, #56]	; 0x38
  RCC_OscInitStruct.PLL.PLLMUL = RCC_PLL_MUL9;
 800182e:	f44f 13e0 	mov.w	r3, #1835008	; 0x1c0000
  if (HAL_RCC_OscConfig(&RCC_OscInitStruct) != HAL_OK)
 8001832:	a806      	add	r0, sp, #24
  RCC_OscInitStruct.OscillatorType = RCC_OSCILLATORTYPE_HSE;
 8001834:	9206      	str	r2, [sp, #24]
  RCC_OscInitStruct.HSIState = RCC_HSI_ON;
 8001836:	920a      	str	r2, [sp, #40]	; 0x28
  RCC_OscInitStruct.PLL.PLLMUL = RCC_PLL_MUL9;
 8001838:	930f      	str	r3, [sp, #60]	; 0x3c
  RCC_OscInitStruct.PLL.PLLState = RCC_PLL_ON;
 800183a:	940d      	str	r4, [sp, #52]	; 0x34
  if (HAL_RCC_OscConfig(&RCC_OscInitStruct) != HAL_OK)
 800183c:	f7ff fb12 	bl	8000e64 <HAL_RCC_OscConfig>
  {
    Error_Handler();
  }
  /**Initializes the CPU, AHB and APB busses clocks 
  */
  RCC_ClkInitStruct.ClockType = RCC_CLOCKTYPE_HCLK|RCC_CLOCKTYPE_SYSCLK
 8001840:	230f      	movs	r3, #15
                              |RCC_CLOCKTYPE_PCLK1|RCC_CLOCKTYPE_PCLK2;
  RCC_ClkInitStruct.SYSCLKSource = RCC_SYSCLKSOURCE_PLLCLK;
  RCC_ClkInitStruct.AHBCLKDivider = RCC_SYSCLK_DIV1;
  RCC_ClkInitStruct.APB1CLKDivider = RCC_HCLK_DIV2;
 8001842:	f44f 6280 	mov.w	r2, #1024	; 0x400
  RCC_ClkInitStruct.ClockType = RCC_CLOCKTYPE_HCLK|RCC_CLOCKTYPE_SYSCLK
 8001846:	9301      	str	r3, [sp, #4]
  RCC_ClkInitStruct.AHBCLKDivider = RCC_SYSCLK_DIV1;
 8001848:	2300      	movs	r3, #0
  RCC_ClkInitStruct.APB2CLKDivider = RCC_HCLK_DIV1;

  if (HAL_RCC_ClockConfig(&RCC_ClkInitStruct, FLASH_LATENCY_2) != HAL_OK)
 800184a:	4621      	mov	r1, r4
 800184c:	a801      	add	r0, sp, #4
  RCC_ClkInitStruct.SYSCLKSource = RCC_SYSCLKSOURCE_PLLCLK;
 800184e:	9402      	str	r4, [sp, #8]
  RCC_ClkInitStruct.AHBCLKDivider = RCC_SYSCLK_DIV1;
 8001850:	9303      	str	r3, [sp, #12]
  RCC_ClkInitStruct.APB1CLKDivider = RCC_HCLK_DIV2;
 8001852:	9204      	str	r2, [sp, #16]
  RCC_ClkInitStruct.APB2CLKDivider = RCC_HCLK_DIV1;
 8001854:	9305      	str	r3, [sp, #20]
  if (HAL_RCC_ClockConfig(&RCC_ClkInitStruct, FLASH_LATENCY_2) != HAL_OK)
 8001856:	f7ff fccd 	bl	80011f4 <HAL_RCC_ClockConfig>
  {
    Error_Handler();
  }
}
 800185a:	b010      	add	sp, #64	; 0x40
 800185c:	bd10      	pop	{r4, pc}
	...

08001860 <main>:
{
 8001860:	b5f0      	push	{r4, r5, r6, r7, lr}
 8001862:	b08f      	sub	sp, #60	; 0x3c
  HAL_Init();
 8001864:	f7ff f980 	bl	8000b68 <HAL_Init>
  SystemClock_Config();
 8001868:	f7ff ffcf 	bl	800180a <SystemClock_Config>
  * @param None
  * @retval None
  */
static void MX_GPIO_Init(void)
{
  GPIO_InitTypeDef GPIO_InitStruct = {0};
 800186c:	2210      	movs	r2, #16
 800186e:	2100      	movs	r1, #0
 8001870:	a806      	add	r0, sp, #24
 8001872:	f000 f965 	bl	8001b40 <memset>

  /* GPIO Ports Clock Enable */
  __HAL_RCC_GPIOD_CLK_ENABLE();
 8001876:	4b3f      	ldr	r3, [pc, #252]	; (8001974 <main+0x114>)
  __HAL_RCC_GPIOA_CLK_ENABLE();
  __HAL_RCC_GPIOB_CLK_ENABLE();

  /*Configure GPIO pin Output Level */
  HAL_GPIO_WritePin(GPIOB, GPIO_PIN_5, GPIO_PIN_RESET);
 8001878:	2120      	movs	r1, #32
  __HAL_RCC_GPIOD_CLK_ENABLE();
 800187a:	699a      	ldr	r2, [r3, #24]
  HAL_GPIO_WritePin(GPIOB, GPIO_PIN_5, GPIO_PIN_RESET);
 800187c:	483e      	ldr	r0, [pc, #248]	; (8001978 <main+0x118>)
  __HAL_RCC_GPIOD_CLK_ENABLE();
 800187e:	f042 0220 	orr.w	r2, r2, #32
 8001882:	619a      	str	r2, [r3, #24]
 8001884:	699a      	ldr	r2, [r3, #24]

  /*Configure GPIO pin : PB5 */
  GPIO_InitStruct.Pin = GPIO_PIN_5;
  GPIO_InitStruct.Mode = GPIO_MODE_OUTPUT_OD;
  GPIO_InitStruct.Pull = GPIO_NOPULL;
 8001886:	2500      	movs	r5, #0
  __HAL_RCC_GPIOD_CLK_ENABLE();
 8001888:	f002 0220 	and.w	r2, r2, #32
 800188c:	9203      	str	r2, [sp, #12]
 800188e:	9a03      	ldr	r2, [sp, #12]
  __HAL_RCC_GPIOA_CLK_ENABLE();
 8001890:	699a      	ldr	r2, [r3, #24]
  huart1.Instance = USART1;
 8001892:	4c3a      	ldr	r4, [pc, #232]	; (800197c <main+0x11c>)
  __HAL_RCC_GPIOA_CLK_ENABLE();
 8001894:	f042 0204 	orr.w	r2, r2, #4
 8001898:	619a      	str	r2, [r3, #24]
 800189a:	699a      	ldr	r2, [r3, #24]
	  float t = temp / 16.0;
 800189c:	2600      	movs	r6, #0
  __HAL_RCC_GPIOA_CLK_ENABLE();
 800189e:	f002 0204 	and.w	r2, r2, #4
 80018a2:	9204      	str	r2, [sp, #16]
 80018a4:	9a04      	ldr	r2, [sp, #16]
  __HAL_RCC_GPIOB_CLK_ENABLE();
 80018a6:	699a      	ldr	r2, [r3, #24]
	  float t = temp / 16.0;
 80018a8:	4f35      	ldr	r7, [pc, #212]	; (8001980 <main+0x120>)
  __HAL_RCC_GPIOB_CLK_ENABLE();
 80018aa:	f042 0208 	orr.w	r2, r2, #8
 80018ae:	619a      	str	r2, [r3, #24]
 80018b0:	699b      	ldr	r3, [r3, #24]
  HAL_GPIO_WritePin(GPIOB, GPIO_PIN_5, GPIO_PIN_RESET);
 80018b2:	2200      	movs	r2, #0
  __HAL_RCC_GPIOB_CLK_ENABLE();
 80018b4:	f003 0308 	and.w	r3, r3, #8
 80018b8:	9305      	str	r3, [sp, #20]
 80018ba:	9b05      	ldr	r3, [sp, #20]
  HAL_GPIO_WritePin(GPIOB, GPIO_PIN_5, GPIO_PIN_RESET);
 80018bc:	f7ff facc 	bl	8000e58 <HAL_GPIO_WritePin>
  GPIO_InitStruct.Pin = GPIO_PIN_5;
 80018c0:	2320      	movs	r3, #32
 80018c2:	9306      	str	r3, [sp, #24]
  GPIO_InitStruct.Mode = GPIO_MODE_OUTPUT_OD;
 80018c4:	2311      	movs	r3, #17
 80018c6:	9307      	str	r3, [sp, #28]
  GPIO_InitStruct.Speed = GPIO_SPEED_FREQ_HIGH;
 80018c8:	2303      	movs	r3, #3
  HAL_GPIO_Init(GPIOB, &GPIO_InitStruct);
 80018ca:	a906      	add	r1, sp, #24
 80018cc:	482a      	ldr	r0, [pc, #168]	; (8001978 <main+0x118>)
  GPIO_InitStruct.Speed = GPIO_SPEED_FREQ_HIGH;
 80018ce:	9309      	str	r3, [sp, #36]	; 0x24
  GPIO_InitStruct.Pull = GPIO_NOPULL;
 80018d0:	9508      	str	r5, [sp, #32]
  HAL_GPIO_Init(GPIOB, &GPIO_InitStruct);
 80018d2:	f7ff f9db 	bl	8000c8c <HAL_GPIO_Init>
  huart1.Init.BaudRate = 115200;
 80018d6:	f44f 33e1 	mov.w	r3, #115200	; 0x1c200
 80018da:	4a2a      	ldr	r2, [pc, #168]	; (8001984 <main+0x124>)
  if (HAL_UART_Init(&huart1) != HAL_OK)
 80018dc:	4620      	mov	r0, r4
  huart1.Init.BaudRate = 115200;
 80018de:	e884 000c 	stmia.w	r4, {r2, r3}
  huart1.Init.Mode = UART_MODE_TX_RX;
 80018e2:	230c      	movs	r3, #12
  huart1.Init.WordLength = UART_WORDLENGTH_8B;
 80018e4:	60a5      	str	r5, [r4, #8]
  huart1.Init.Mode = UART_MODE_TX_RX;
 80018e6:	6163      	str	r3, [r4, #20]
  huart1.Init.StopBits = UART_STOPBITS_1;
 80018e8:	60e5      	str	r5, [r4, #12]
  huart1.Init.Parity = UART_PARITY_NONE;
 80018ea:	6125      	str	r5, [r4, #16]
  huart1.Init.HwFlowCtl = UART_HWCONTROL_NONE;
 80018ec:	61a5      	str	r5, [r4, #24]
  huart1.Init.OverSampling = UART_OVERSAMPLING_16;
 80018ee:	61e5      	str	r5, [r4, #28]
  if (HAL_UART_Init(&huart1) != HAL_OK)
 80018f0:	f7ff fe18 	bl	8001524 <HAL_UART_Init>
  Init_ds18b20(DS18B20_Resolution_12_bit);
 80018f4:	207f      	movs	r0, #127	; 0x7f
 80018f6:	f7ff ff81 	bl	80017fc <Init_ds18b20>
	  int16_t temp = ds18b20_getTemperature();
 80018fa:	f7ff ff43 	bl	8001784 <ds18b20_getTemperature>
	  char str[32] = {0,};
 80018fe:	2220      	movs	r2, #32
	  int16_t temp = ds18b20_getTemperature();
 8001900:	4605      	mov	r5, r0
	  char str[32] = {0,};
 8001902:	2100      	movs	r1, #0
 8001904:	a806      	add	r0, sp, #24
 8001906:	f000 f91b 	bl	8001b40 <memset>
	  snprintf(str, 32, "Temp dec: %d\n", temp / 16);
 800190a:	2310      	movs	r3, #16
 800190c:	fb95 f3f3 	sdiv	r3, r5, r3
 8001910:	4a1d      	ldr	r2, [pc, #116]	; (8001988 <main+0x128>)
 8001912:	b21b      	sxth	r3, r3
 8001914:	2120      	movs	r1, #32
 8001916:	a806      	add	r0, sp, #24
 8001918:	f000 fd7c 	bl	8002414 <sniprintf>
	  HAL_UART_Transmit(&huart1, (uint8_t*)str, strlen(str), 1000);
 800191c:	a806      	add	r0, sp, #24
 800191e:	f7fe fc17 	bl	8000150 <strlen>
 8001922:	f44f 737a 	mov.w	r3, #1000	; 0x3e8
 8001926:	b282      	uxth	r2, r0
 8001928:	a906      	add	r1, sp, #24
 800192a:	4620      	mov	r0, r4
 800192c:	f7ff fe28 	bl	8001580 <HAL_UART_Transmit>
	  float t = temp / 16.0;
 8001930:	4628      	mov	r0, r5
 8001932:	f7fe fd67 	bl	8000404 <__aeabi_i2d>
 8001936:	463b      	mov	r3, r7
 8001938:	4632      	mov	r2, r6
 800193a:	f7fe fdc9 	bl	80004d0 <__aeabi_dmul>
 800193e:	f7ff f89f 	bl	8000a80 <__aeabi_d2f>
	  snprintf(str, 32, "Temp float: %.2f\n", t);
 8001942:	f7fe fd71 	bl	8000428 <__aeabi_f2d>
 8001946:	4a11      	ldr	r2, [pc, #68]	; (800198c <main+0x12c>)
 8001948:	e9cd 0100 	strd	r0, r1, [sp]
 800194c:	2120      	movs	r1, #32
 800194e:	a806      	add	r0, sp, #24
 8001950:	f000 fd60 	bl	8002414 <sniprintf>
	  HAL_UART_Transmit(&huart1, (uint8_t*)str, strlen(str), 1000);
 8001954:	a806      	add	r0, sp, #24
 8001956:	f7fe fbfb 	bl	8000150 <strlen>
 800195a:	f44f 737a 	mov.w	r3, #1000	; 0x3e8
 800195e:	b282      	uxth	r2, r0
 8001960:	a906      	add	r1, sp, #24
 8001962:	4620      	mov	r0, r4
 8001964:	f7ff fe0c 	bl	8001580 <HAL_UART_Transmit>
	  HAL_Delay(1000);
 8001968:	f44f 707a 	mov.w	r0, #1000	; 0x3e8
 800196c:	f7ff f920 	bl	8000bb0 <HAL_Delay>
 8001970:	e7c3      	b.n	80018fa <main+0x9a>
 8001972:	bf00      	nop
 8001974:	40021000 	.word	0x40021000
 8001978:	40010c00 	.word	0x40010c00
 800197c:	2000020c 	.word	0x2000020c
 8001980:	3fb00000 	.word	0x3fb00000
 8001984:	40013800 	.word	0x40013800
 8001988:	08003c88 	.word	0x08003c88
 800198c:	08003c96 	.word	0x08003c96

08001990 <HAL_MspInit>:
{
  /* USER CODE BEGIN MspInit 0 */

  /* USER CODE END MspInit 0 */

  __HAL_RCC_AFIO_CLK_ENABLE();
 8001990:	4b0e      	ldr	r3, [pc, #56]	; (80019cc <HAL_MspInit+0x3c>)
{
 8001992:	b082      	sub	sp, #8
  __HAL_RCC_AFIO_CLK_ENABLE();
 8001994:	699a      	ldr	r2, [r3, #24]
 8001996:	f042 0201 	orr.w	r2, r2, #1
 800199a:	619a      	str	r2, [r3, #24]
 800199c:	699a      	ldr	r2, [r3, #24]
 800199e:	f002 0201 	and.w	r2, r2, #1
 80019a2:	9200      	str	r2, [sp, #0]
 80019a4:	9a00      	ldr	r2, [sp, #0]
  __HAL_RCC_PWR_CLK_ENABLE();
 80019a6:	69da      	ldr	r2, [r3, #28]
 80019a8:	f042 5280 	orr.w	r2, r2, #268435456	; 0x10000000
 80019ac:	61da      	str	r2, [r3, #28]
 80019ae:	69db      	ldr	r3, [r3, #28]

  /* System interrupt init*/

  /**NOJTAG: JTAG-DP Disabled and SW-DP Enabled 
  */
  __HAL_AFIO_REMAP_SWJ_NOJTAG();
 80019b0:	4a07      	ldr	r2, [pc, #28]	; (80019d0 <HAL_MspInit+0x40>)
  __HAL_RCC_PWR_CLK_ENABLE();
 80019b2:	f003 5380 	and.w	r3, r3, #268435456	; 0x10000000
 80019b6:	9301      	str	r3, [sp, #4]
 80019b8:	9b01      	ldr	r3, [sp, #4]
  __HAL_AFIO_REMAP_SWJ_NOJTAG();
 80019ba:	6853      	ldr	r3, [r2, #4]
 80019bc:	f023 63e0 	bic.w	r3, r3, #117440512	; 0x7000000
 80019c0:	f043 7300 	orr.w	r3, r3, #33554432	; 0x2000000
 80019c4:	6053      	str	r3, [r2, #4]

  /* USER CODE BEGIN MspInit 1 */

  /* USER CODE END MspInit 1 */
}
 80019c6:	b002      	add	sp, #8
 80019c8:	4770      	bx	lr
 80019ca:	bf00      	nop
 80019cc:	40021000 	.word	0x40021000
 80019d0:	40010000 	.word	0x40010000

080019d4 <HAL_UART_MspInit>:
* This function configures the hardware resources used in this example
* @param huart: UART handle pointer
* @retval None
*/
void HAL_UART_MspInit(UART_HandleTypeDef* huart)
{
 80019d4:	b510      	push	{r4, lr}
 80019d6:	4604      	mov	r4, r0
 80019d8:	b086      	sub	sp, #24

  GPIO_InitTypeDef GPIO_InitStruct = {0};
 80019da:	2210      	movs	r2, #16
 80019dc:	2100      	movs	r1, #0
 80019de:	a802      	add	r0, sp, #8
 80019e0:	f000 f8ae 	bl	8001b40 <memset>
  if(huart->Instance==USART1)
 80019e4:	6822      	ldr	r2, [r4, #0]
 80019e6:	4b17      	ldr	r3, [pc, #92]	; (8001a44 <HAL_UART_MspInit+0x70>)
 80019e8:	429a      	cmp	r2, r3
 80019ea:	d128      	bne.n	8001a3e <HAL_UART_MspInit+0x6a>
  {
  /* USER CODE BEGIN USART1_MspInit 0 */

  /* USER CODE END USART1_MspInit 0 */
    /* Peripheral clock enable */
    __HAL_RCC_USART1_CLK_ENABLE();
 80019ec:	f503 4358 	add.w	r3, r3, #55296	; 0xd800
 80019f0:	699a      	ldr	r2, [r3, #24]
    PA10     ------> USART1_RX 
    */
    GPIO_InitStruct.Pin = GPIO_PIN_9;
    GPIO_InitStruct.Mode = GPIO_MODE_AF_PP;
    GPIO_InitStruct.Speed = GPIO_SPEED_FREQ_HIGH;
    HAL_GPIO_Init(GPIOA, &GPIO_InitStruct);
 80019f2:	a902      	add	r1, sp, #8
    __HAL_RCC_USART1_CLK_ENABLE();
 80019f4:	f442 4280 	orr.w	r2, r2, #16384	; 0x4000
 80019f8:	619a      	str	r2, [r3, #24]
 80019fa:	699a      	ldr	r2, [r3, #24]
    HAL_GPIO_Init(GPIOA, &GPIO_InitStruct);
 80019fc:	4812      	ldr	r0, [pc, #72]	; (8001a48 <HAL_UART_MspInit+0x74>)
    __HAL_RCC_USART1_CLK_ENABLE();
 80019fe:	f402 4280 	and.w	r2, r2, #16384	; 0x4000
 8001a02:	9200      	str	r2, [sp, #0]
 8001a04:	9a00      	ldr	r2, [sp, #0]
    __HAL_RCC_GPIOA_CLK_ENABLE();
 8001a06:	699a      	ldr	r2, [r3, #24]
 8001a08:	f042 0204 	orr.w	r2, r2, #4
 8001a0c:	619a      	str	r2, [r3, #24]
 8001a0e:	699b      	ldr	r3, [r3, #24]
 8001a10:	f003 0304 	and.w	r3, r3, #4
 8001a14:	9301      	str	r3, [sp, #4]
 8001a16:	9b01      	ldr	r3, [sp, #4]
    GPIO_InitStruct.Pin = GPIO_PIN_9;
 8001a18:	f44f 7300 	mov.w	r3, #512	; 0x200
 8001a1c:	9302      	str	r3, [sp, #8]
    GPIO_InitStruct.Mode = GPIO_MODE_AF_PP;
 8001a1e:	2302      	movs	r3, #2
 8001a20:	9303      	str	r3, [sp, #12]
    GPIO_InitStruct.Speed = GPIO_SPEED_FREQ_HIGH;
 8001a22:	2303      	movs	r3, #3
 8001a24:	9305      	str	r3, [sp, #20]
    HAL_GPIO_Init(GPIOA, &GPIO_InitStruct);
 8001a26:	f7ff f931 	bl	8000c8c <HAL_GPIO_Init>

    GPIO_InitStruct.Pin = GPIO_PIN_10;
 8001a2a:	f44f 6380 	mov.w	r3, #1024	; 0x400
 8001a2e:	9302      	str	r3, [sp, #8]
    GPIO_InitStruct.Mode = GPIO_MODE_INPUT;
 8001a30:	2300      	movs	r3, #0
    GPIO_InitStruct.Pull = GPIO_NOPULL;
    HAL_GPIO_Init(GPIOA, &GPIO_InitStruct);
 8001a32:	a902      	add	r1, sp, #8
 8001a34:	4804      	ldr	r0, [pc, #16]	; (8001a48 <HAL_UART_MspInit+0x74>)
    GPIO_InitStruct.Mode = GPIO_MODE_INPUT;
 8001a36:	9303      	str	r3, [sp, #12]
    GPIO_InitStruct.Pull = GPIO_NOPULL;
 8001a38:	9304      	str	r3, [sp, #16]
    HAL_GPIO_Init(GPIOA, &GPIO_InitStruct);
 8001a3a:	f7ff f927 	bl	8000c8c <HAL_GPIO_Init>
  /* USER CODE BEGIN USART1_MspInit 1 */

  /* USER CODE END USART1_MspInit 1 */
  }

}
 8001a3e:	b006      	add	sp, #24
 8001a40:	bd10      	pop	{r4, pc}
 8001a42:	bf00      	nop
 8001a44:	40013800 	.word	0x40013800
 8001a48:	40010800 	.word	0x40010800

08001a4c <NMI_Handler>:
 8001a4c:	4770      	bx	lr

08001a4e <HardFault_Handler>:

/**
  * @brief This function handles Hard fault interrupt.
  */
void HardFault_Handler(void)
{
 8001a4e:	e7fe      	b.n	8001a4e <HardFault_Handler>

08001a50 <MemManage_Handler>:

/**
  * @brief This function handles Memory management fault.
  */
void MemManage_Handler(void)
{
 8001a50:	e7fe      	b.n	8001a50 <MemManage_Handler>

08001a52 <BusFault_Handler>:

/**
  * @brief This function handles Prefetch fault, memory access fault.
  */
void BusFault_Handler(void)
{
 8001a52:	e7fe      	b.n	8001a52 <BusFault_Handler>

08001a54 <UsageFault_Handler>:

/**
  * @brief This function handles Undefined instruction or illegal state.
  */
void UsageFault_Handler(void)
{
 8001a54:	e7fe      	b.n	8001a54 <UsageFault_Handler>

08001a56 <SVC_Handler>:
 8001a56:	4770      	bx	lr

08001a58 <DebugMon_Handler>:
 8001a58:	4770      	bx	lr

08001a5a <PendSV_Handler>:

/**
  * @brief This function handles Pendable request for system service.
  */
void PendSV_Handler(void)
{
 8001a5a:	4770      	bx	lr

08001a5c <SysTick_Handler>:
void SysTick_Handler(void)
{
  /* USER CODE BEGIN SysTick_IRQn 0 */

  /* USER CODE END SysTick_IRQn 0 */
  HAL_IncTick();
 8001a5c:	f7ff b896 	b.w	8000b8c <HAL_IncTick>

08001a60 <SystemInit>:
  */
void SystemInit (void)
{
  /* Reset the RCC clock configuration to the default reset state(for debug purpose) */
  /* Set HSION bit */
  RCC->CR |= 0x00000001U;
 8001a60:	4b0f      	ldr	r3, [pc, #60]	; (8001aa0 <SystemInit+0x40>)
 8001a62:	681a      	ldr	r2, [r3, #0]
 8001a64:	f042 0201 	orr.w	r2, r2, #1
 8001a68:	601a      	str	r2, [r3, #0]

  /* Reset SW, HPRE, PPRE1, PPRE2, ADCPRE and MCO bits */
#if !defined(STM32F105xC) && !defined(STM32F107xC)
  RCC->CFGR &= 0xF8FF0000U;
 8001a6a:	6859      	ldr	r1, [r3, #4]
 8001a6c:	4a0d      	ldr	r2, [pc, #52]	; (8001aa4 <SystemInit+0x44>)
 8001a6e:	400a      	ands	r2, r1
 8001a70:	605a      	str	r2, [r3, #4]
#else
  RCC->CFGR &= 0xF0FF0000U;
#endif /* STM32F105xC */   
  
  /* Reset HSEON, CSSON and PLLON bits */
  RCC->CR &= 0xFEF6FFFFU;
 8001a72:	681a      	ldr	r2, [r3, #0]
 8001a74:	f022 7284 	bic.w	r2, r2, #17301504	; 0x1080000
 8001a78:	f422 3280 	bic.w	r2, r2, #65536	; 0x10000
 8001a7c:	601a      	str	r2, [r3, #0]

  /* Reset HSEBYP bit */
  RCC->CR &= 0xFFFBFFFFU;
 8001a7e:	681a      	ldr	r2, [r3, #0]
 8001a80:	f422 2280 	bic.w	r2, r2, #262144	; 0x40000
 8001a84:	601a      	str	r2, [r3, #0]

  /* Reset PLLSRC, PLLXTPRE, PLLMUL and USBPRE/OTGFSPRE bits */
  RCC->CFGR &= 0xFF80FFFFU;
 8001a86:	685a      	ldr	r2, [r3, #4]
 8001a88:	f422 02fe 	bic.w	r2, r2, #8323072	; 0x7f0000
 8001a8c:	605a      	str	r2, [r3, #4]

  /* Reset CFGR2 register */
  RCC->CFGR2 = 0x00000000U;      
#else
  /* Disable all interrupts and clear pending bits  */
  RCC->CIR = 0x009F0000U;
 8001a8e:	f44f 021f 	mov.w	r2, #10420224	; 0x9f0000
 8001a92:	609a      	str	r2, [r3, #8]
#endif 

#ifdef VECT_TAB_SRAM
  SCB->VTOR = SRAM_BASE | VECT_TAB_OFFSET; /* Vector Table Relocation in Internal SRAM. */
#else
  SCB->VTOR = FLASH_BASE | VECT_TAB_OFFSET; /* Vector Table Relocation in Internal FLASH. */
 8001a94:	f04f 6200 	mov.w	r2, #134217728	; 0x8000000
 8001a98:	4b03      	ldr	r3, [pc, #12]	; (8001aa8 <SystemInit+0x48>)
 8001a9a:	609a      	str	r2, [r3, #8]
 8001a9c:	4770      	bx	lr
 8001a9e:	bf00      	nop
 8001aa0:	40021000 	.word	0x40021000
 8001aa4:	f8ff0000 	.word	0xf8ff0000
 8001aa8:	e000ed00 	.word	0xe000ed00

08001aac <Reset_Handler>:
  .weak Reset_Handler
  .type Reset_Handler, %function
Reset_Handler:

/* Copy the data segment initializers from flash to SRAM */
  movs r1, #0
 8001aac:	2100      	movs	r1, #0
  b LoopCopyDataInit
 8001aae:	e003      	b.n	8001ab8 <LoopCopyDataInit>

08001ab0 <CopyDataInit>:

CopyDataInit:
  ldr r3, =_sidata
 8001ab0:	4b0b      	ldr	r3, [pc, #44]	; (8001ae0 <LoopFillZerobss+0x14>)
  ldr r3, [r3, r1]
 8001ab2:	585b      	ldr	r3, [r3, r1]
  str r3, [r0, r1]
 8001ab4:	5043      	str	r3, [r0, r1]
  adds r1, r1, #4
 8001ab6:	3104      	adds	r1, #4

08001ab8 <LoopCopyDataInit>:

LoopCopyDataInit:
  ldr r0, =_sdata
 8001ab8:	480a      	ldr	r0, [pc, #40]	; (8001ae4 <LoopFillZerobss+0x18>)
  ldr r3, =_edata
 8001aba:	4b0b      	ldr	r3, [pc, #44]	; (8001ae8 <LoopFillZerobss+0x1c>)
  adds r2, r0, r1
 8001abc:	1842      	adds	r2, r0, r1
  cmp r2, r3
 8001abe:	429a      	cmp	r2, r3
  bcc CopyDataInit
 8001ac0:	d3f6      	bcc.n	8001ab0 <CopyDataInit>
  ldr r2, =_sbss
 8001ac2:	4a0a      	ldr	r2, [pc, #40]	; (8001aec <LoopFillZerobss+0x20>)
  b LoopFillZerobss
 8001ac4:	e002      	b.n	8001acc <LoopFillZerobss>

08001ac6 <FillZerobss>:
/* Zero fill the bss segment. */
FillZerobss:
  movs r3, #0
 8001ac6:	2300      	movs	r3, #0
  str r3, [r2], #4
 8001ac8:	f842 3b04 	str.w	r3, [r2], #4

08001acc <LoopFillZerobss>:

LoopFillZerobss:
  ldr r3, = _ebss
 8001acc:	4b08      	ldr	r3, [pc, #32]	; (8001af0 <LoopFillZerobss+0x24>)
  cmp r2, r3
 8001ace:	429a      	cmp	r2, r3
  bcc FillZerobss
 8001ad0:	d3f9      	bcc.n	8001ac6 <FillZerobss>

/* Call the clock system intitialization function.*/
    bl  SystemInit
 8001ad2:	f7ff ffc5 	bl	8001a60 <SystemInit>
/* Call static constructors */
    bl __libc_init_array
 8001ad6:	f000 f80f 	bl	8001af8 <__libc_init_array>
/* Call the application's entry point.*/
  bl main
 8001ada:	f7ff fec1 	bl	8001860 <main>
  bx lr
 8001ade:	4770      	bx	lr
  ldr r3, =_sidata
 8001ae0:	08003f28 	.word	0x08003f28
  ldr r0, =_sdata
 8001ae4:	20000000 	.word	0x20000000
  ldr r3, =_edata
 8001ae8:	200001e0 	.word	0x200001e0
  ldr r2, =_sbss
 8001aec:	200001e0 	.word	0x200001e0
  ldr r3, = _ebss
 8001af0:	20000250 	.word	0x20000250

08001af4 <ADC1_2_IRQHandler>:
 * @retval : None
*/
    .section .text.Default_Handler,"ax",%progbits
Default_Handler:
Infinite_Loop:
  b Infinite_Loop
 8001af4:	e7fe      	b.n	8001af4 <ADC1_2_IRQHandler>
	...

08001af8 <__libc_init_array>:
 8001af8:	b570      	push	{r4, r5, r6, lr}
 8001afa:	2500      	movs	r5, #0
 8001afc:	4e0c      	ldr	r6, [pc, #48]	; (8001b30 <__libc_init_array+0x38>)
 8001afe:	4c0d      	ldr	r4, [pc, #52]	; (8001b34 <__libc_init_array+0x3c>)
 8001b00:	1ba4      	subs	r4, r4, r6
 8001b02:	10a4      	asrs	r4, r4, #2
 8001b04:	42a5      	cmp	r5, r4
 8001b06:	d109      	bne.n	8001b1c <__libc_init_array+0x24>
 8001b08:	f002 f8aa 	bl	8003c60 <_init>
 8001b0c:	2500      	movs	r5, #0
 8001b0e:	4e0a      	ldr	r6, [pc, #40]	; (8001b38 <__libc_init_array+0x40>)
 8001b10:	4c0a      	ldr	r4, [pc, #40]	; (8001b3c <__libc_init_array+0x44>)
 8001b12:	1ba4      	subs	r4, r4, r6
 8001b14:	10a4      	asrs	r4, r4, #2
 8001b16:	42a5      	cmp	r5, r4
 8001b18:	d105      	bne.n	8001b26 <__libc_init_array+0x2e>
 8001b1a:	bd70      	pop	{r4, r5, r6, pc}
 8001b1c:	f856 3025 	ldr.w	r3, [r6, r5, lsl #2]
 8001b20:	4798      	blx	r3
 8001b22:	3501      	adds	r5, #1
 8001b24:	e7ee      	b.n	8001b04 <__libc_init_array+0xc>
 8001b26:	f856 3025 	ldr.w	r3, [r6, r5, lsl #2]
 8001b2a:	4798      	blx	r3
 8001b2c:	3501      	adds	r5, #1
 8001b2e:	e7f2      	b.n	8001b16 <__libc_init_array+0x1e>
 8001b30:	08003f20 	.word	0x08003f20
 8001b34:	08003f20 	.word	0x08003f20
 8001b38:	08003f20 	.word	0x08003f20
 8001b3c:	08003f24 	.word	0x08003f24

08001b40 <memset>:
 8001b40:	4603      	mov	r3, r0
 8001b42:	4402      	add	r2, r0
 8001b44:	4293      	cmp	r3, r2
 8001b46:	d100      	bne.n	8001b4a <memset+0xa>
 8001b48:	4770      	bx	lr
 8001b4a:	f803 1b01 	strb.w	r1, [r3], #1
 8001b4e:	e7f9      	b.n	8001b44 <memset+0x4>

08001b50 <__cvt>:
 8001b50:	2b00      	cmp	r3, #0
 8001b52:	e92d 47f0 	stmdb	sp!, {r4, r5, r6, r7, r8, r9, sl, lr}
 8001b56:	461e      	mov	r6, r3
 8001b58:	bfbb      	ittet	lt
 8001b5a:	f103 4300 	addlt.w	r3, r3, #2147483648	; 0x80000000
 8001b5e:	461e      	movlt	r6, r3
 8001b60:	2300      	movge	r3, #0
 8001b62:	232d      	movlt	r3, #45	; 0x2d
 8001b64:	b088      	sub	sp, #32
 8001b66:	9f14      	ldr	r7, [sp, #80]	; 0x50
 8001b68:	9912      	ldr	r1, [sp, #72]	; 0x48
 8001b6a:	f027 0720 	bic.w	r7, r7, #32
 8001b6e:	2f46      	cmp	r7, #70	; 0x46
 8001b70:	4614      	mov	r4, r2
 8001b72:	9d10      	ldr	r5, [sp, #64]	; 0x40
 8001b74:	f8dd a04c 	ldr.w	sl, [sp, #76]	; 0x4c
 8001b78:	700b      	strb	r3, [r1, #0]
 8001b7a:	d004      	beq.n	8001b86 <__cvt+0x36>
 8001b7c:	2f45      	cmp	r7, #69	; 0x45
 8001b7e:	d100      	bne.n	8001b82 <__cvt+0x32>
 8001b80:	3501      	adds	r5, #1
 8001b82:	2302      	movs	r3, #2
 8001b84:	e000      	b.n	8001b88 <__cvt+0x38>
 8001b86:	2303      	movs	r3, #3
 8001b88:	aa07      	add	r2, sp, #28
 8001b8a:	9204      	str	r2, [sp, #16]
 8001b8c:	aa06      	add	r2, sp, #24
 8001b8e:	9203      	str	r2, [sp, #12]
 8001b90:	e88d 0428 	stmia.w	sp, {r3, r5, sl}
 8001b94:	4622      	mov	r2, r4
 8001b96:	4633      	mov	r3, r6
 8001b98:	f000 fcfe 	bl	8002598 <_dtoa_r>
 8001b9c:	2f47      	cmp	r7, #71	; 0x47
 8001b9e:	4680      	mov	r8, r0
 8001ba0:	d102      	bne.n	8001ba8 <__cvt+0x58>
 8001ba2:	9b11      	ldr	r3, [sp, #68]	; 0x44
 8001ba4:	07db      	lsls	r3, r3, #31
 8001ba6:	d526      	bpl.n	8001bf6 <__cvt+0xa6>
 8001ba8:	2f46      	cmp	r7, #70	; 0x46
 8001baa:	eb08 0905 	add.w	r9, r8, r5
 8001bae:	d111      	bne.n	8001bd4 <__cvt+0x84>
 8001bb0:	f898 3000 	ldrb.w	r3, [r8]
 8001bb4:	2b30      	cmp	r3, #48	; 0x30
 8001bb6:	d10a      	bne.n	8001bce <__cvt+0x7e>
 8001bb8:	2200      	movs	r2, #0
 8001bba:	2300      	movs	r3, #0
 8001bbc:	4620      	mov	r0, r4
 8001bbe:	4631      	mov	r1, r6
 8001bc0:	f7fe feee 	bl	80009a0 <__aeabi_dcmpeq>
 8001bc4:	b918      	cbnz	r0, 8001bce <__cvt+0x7e>
 8001bc6:	f1c5 0501 	rsb	r5, r5, #1
 8001bca:	f8ca 5000 	str.w	r5, [sl]
 8001bce:	f8da 3000 	ldr.w	r3, [sl]
 8001bd2:	4499      	add	r9, r3
 8001bd4:	2200      	movs	r2, #0
 8001bd6:	2300      	movs	r3, #0
 8001bd8:	4620      	mov	r0, r4
 8001bda:	4631      	mov	r1, r6
 8001bdc:	f7fe fee0 	bl	80009a0 <__aeabi_dcmpeq>
 8001be0:	b938      	cbnz	r0, 8001bf2 <__cvt+0xa2>
 8001be2:	2230      	movs	r2, #48	; 0x30
 8001be4:	9b07      	ldr	r3, [sp, #28]
 8001be6:	4599      	cmp	r9, r3
 8001be8:	d905      	bls.n	8001bf6 <__cvt+0xa6>
 8001bea:	1c59      	adds	r1, r3, #1
 8001bec:	9107      	str	r1, [sp, #28]
 8001bee:	701a      	strb	r2, [r3, #0]
 8001bf0:	e7f8      	b.n	8001be4 <__cvt+0x94>
 8001bf2:	f8cd 901c 	str.w	r9, [sp, #28]
 8001bf6:	4640      	mov	r0, r8
 8001bf8:	9b07      	ldr	r3, [sp, #28]
 8001bfa:	9a15      	ldr	r2, [sp, #84]	; 0x54
 8001bfc:	eba3 0308 	sub.w	r3, r3, r8
 8001c00:	6013      	str	r3, [r2, #0]
 8001c02:	b008      	add	sp, #32
 8001c04:	e8bd 87f0 	ldmia.w	sp!, {r4, r5, r6, r7, r8, r9, sl, pc}

08001c08 <__exponent>:
 8001c08:	4603      	mov	r3, r0
 8001c0a:	b5f7      	push	{r0, r1, r2, r4, r5, r6, r7, lr}
 8001c0c:	2900      	cmp	r1, #0
 8001c0e:	f803 2b02 	strb.w	r2, [r3], #2
 8001c12:	bfb6      	itet	lt
 8001c14:	222d      	movlt	r2, #45	; 0x2d
 8001c16:	222b      	movge	r2, #43	; 0x2b
 8001c18:	4249      	neglt	r1, r1
 8001c1a:	2909      	cmp	r1, #9
 8001c1c:	7042      	strb	r2, [r0, #1]
 8001c1e:	dd21      	ble.n	8001c64 <__exponent+0x5c>
 8001c20:	f10d 0207 	add.w	r2, sp, #7
 8001c24:	4617      	mov	r7, r2
 8001c26:	260a      	movs	r6, #10
 8001c28:	fb91 f5f6 	sdiv	r5, r1, r6
 8001c2c:	fb06 1115 	mls	r1, r6, r5, r1
 8001c30:	2d09      	cmp	r5, #9
 8001c32:	f101 0130 	add.w	r1, r1, #48	; 0x30
 8001c36:	f802 1c01 	strb.w	r1, [r2, #-1]
 8001c3a:	f102 34ff 	add.w	r4, r2, #4294967295	; 0xffffffff
 8001c3e:	4629      	mov	r1, r5
 8001c40:	dc09      	bgt.n	8001c56 <__exponent+0x4e>
 8001c42:	3130      	adds	r1, #48	; 0x30
 8001c44:	3a02      	subs	r2, #2
 8001c46:	f804 1c01 	strb.w	r1, [r4, #-1]
 8001c4a:	42ba      	cmp	r2, r7
 8001c4c:	461c      	mov	r4, r3
 8001c4e:	d304      	bcc.n	8001c5a <__exponent+0x52>
 8001c50:	1a20      	subs	r0, r4, r0
 8001c52:	b003      	add	sp, #12
 8001c54:	bdf0      	pop	{r4, r5, r6, r7, pc}
 8001c56:	4622      	mov	r2, r4
 8001c58:	e7e6      	b.n	8001c28 <__exponent+0x20>
 8001c5a:	f812 1b01 	ldrb.w	r1, [r2], #1
 8001c5e:	f803 1b01 	strb.w	r1, [r3], #1
 8001c62:	e7f2      	b.n	8001c4a <__exponent+0x42>
 8001c64:	2230      	movs	r2, #48	; 0x30
 8001c66:	461c      	mov	r4, r3
 8001c68:	4411      	add	r1, r2
 8001c6a:	f804 2b02 	strb.w	r2, [r4], #2
 8001c6e:	7059      	strb	r1, [r3, #1]
 8001c70:	e7ee      	b.n	8001c50 <__exponent+0x48>
	...

08001c74 <_printf_float>:
 8001c74:	e92d 4ff0 	stmdb	sp!, {r4, r5, r6, r7, r8, r9, sl, fp, lr}
 8001c78:	b091      	sub	sp, #68	; 0x44
 8001c7a:	460c      	mov	r4, r1
 8001c7c:	9f1a      	ldr	r7, [sp, #104]	; 0x68
 8001c7e:	4693      	mov	fp, r2
 8001c80:	461e      	mov	r6, r3
 8001c82:	4605      	mov	r5, r0
 8001c84:	f001 fa5c 	bl	8003140 <_localeconv_r>
 8001c88:	6803      	ldr	r3, [r0, #0]
 8001c8a:	4618      	mov	r0, r3
 8001c8c:	9309      	str	r3, [sp, #36]	; 0x24
 8001c8e:	f7fe fa5f 	bl	8000150 <strlen>
 8001c92:	2300      	movs	r3, #0
 8001c94:	930e      	str	r3, [sp, #56]	; 0x38
 8001c96:	683b      	ldr	r3, [r7, #0]
 8001c98:	900a      	str	r0, [sp, #40]	; 0x28
 8001c9a:	3307      	adds	r3, #7
 8001c9c:	f023 0307 	bic.w	r3, r3, #7
 8001ca0:	f103 0208 	add.w	r2, r3, #8
 8001ca4:	f894 8018 	ldrb.w	r8, [r4, #24]
 8001ca8:	f8d4 a000 	ldr.w	sl, [r4]
 8001cac:	603a      	str	r2, [r7, #0]
 8001cae:	e9d3 2300 	ldrd	r2, r3, [r3]
 8001cb2:	e9c4 2312 	strd	r2, r3, [r4, #72]	; 0x48
 8001cb6:	f8d4 904c 	ldr.w	r9, [r4, #76]	; 0x4c
 8001cba:	6ca7      	ldr	r7, [r4, #72]	; 0x48
 8001cbc:	f029 4300 	bic.w	r3, r9, #2147483648	; 0x80000000
 8001cc0:	930b      	str	r3, [sp, #44]	; 0x2c
 8001cc2:	f04f 32ff 	mov.w	r2, #4294967295	; 0xffffffff
 8001cc6:	4ba6      	ldr	r3, [pc, #664]	; (8001f60 <_printf_float+0x2ec>)
 8001cc8:	4638      	mov	r0, r7
 8001cca:	990b      	ldr	r1, [sp, #44]	; 0x2c
 8001ccc:	f7fe fe9a 	bl	8000a04 <__aeabi_dcmpun>
 8001cd0:	2800      	cmp	r0, #0
 8001cd2:	f040 81f7 	bne.w	80020c4 <_printf_float+0x450>
 8001cd6:	f04f 32ff 	mov.w	r2, #4294967295	; 0xffffffff
 8001cda:	4ba1      	ldr	r3, [pc, #644]	; (8001f60 <_printf_float+0x2ec>)
 8001cdc:	4638      	mov	r0, r7
 8001cde:	990b      	ldr	r1, [sp, #44]	; 0x2c
 8001ce0:	f7fe fe72 	bl	80009c8 <__aeabi_dcmple>
 8001ce4:	2800      	cmp	r0, #0
 8001ce6:	f040 81ed 	bne.w	80020c4 <_printf_float+0x450>
 8001cea:	2200      	movs	r2, #0
 8001cec:	2300      	movs	r3, #0
 8001cee:	4638      	mov	r0, r7
 8001cf0:	4649      	mov	r1, r9
 8001cf2:	f7fe fe5f 	bl	80009b4 <__aeabi_dcmplt>
 8001cf6:	b110      	cbz	r0, 8001cfe <_printf_float+0x8a>
 8001cf8:	232d      	movs	r3, #45	; 0x2d
 8001cfa:	f884 3043 	strb.w	r3, [r4, #67]	; 0x43
 8001cfe:	4b99      	ldr	r3, [pc, #612]	; (8001f64 <_printf_float+0x2f0>)
 8001d00:	4f99      	ldr	r7, [pc, #612]	; (8001f68 <_printf_float+0x2f4>)
 8001d02:	f1b8 0f47 	cmp.w	r8, #71	; 0x47
 8001d06:	bf98      	it	ls
 8001d08:	461f      	movls	r7, r3
 8001d0a:	2303      	movs	r3, #3
 8001d0c:	f04f 0900 	mov.w	r9, #0
 8001d10:	6123      	str	r3, [r4, #16]
 8001d12:	f02a 0304 	bic.w	r3, sl, #4
 8001d16:	6023      	str	r3, [r4, #0]
 8001d18:	9600      	str	r6, [sp, #0]
 8001d1a:	465b      	mov	r3, fp
 8001d1c:	aa0f      	add	r2, sp, #60	; 0x3c
 8001d1e:	4621      	mov	r1, r4
 8001d20:	4628      	mov	r0, r5
 8001d22:	f000 f9df 	bl	80020e4 <_printf_common>
 8001d26:	3001      	adds	r0, #1
 8001d28:	f040 809a 	bne.w	8001e60 <_printf_float+0x1ec>
 8001d2c:	f04f 30ff 	mov.w	r0, #4294967295	; 0xffffffff
 8001d30:	b011      	add	sp, #68	; 0x44
 8001d32:	e8bd 8ff0 	ldmia.w	sp!, {r4, r5, r6, r7, r8, r9, sl, fp, pc}
 8001d36:	6862      	ldr	r2, [r4, #4]
 8001d38:	a80e      	add	r0, sp, #56	; 0x38
 8001d3a:	1c53      	adds	r3, r2, #1
 8001d3c:	f10d 0e34 	add.w	lr, sp, #52	; 0x34
 8001d40:	f44a 6380 	orr.w	r3, sl, #1024	; 0x400
 8001d44:	d141      	bne.n	8001dca <_printf_float+0x156>
 8001d46:	2206      	movs	r2, #6
 8001d48:	6062      	str	r2, [r4, #4]
 8001d4a:	2100      	movs	r1, #0
 8001d4c:	6023      	str	r3, [r4, #0]
 8001d4e:	9301      	str	r3, [sp, #4]
 8001d50:	6863      	ldr	r3, [r4, #4]
 8001d52:	f10d 0233 	add.w	r2, sp, #51	; 0x33
 8001d56:	9005      	str	r0, [sp, #20]
 8001d58:	9202      	str	r2, [sp, #8]
 8001d5a:	9300      	str	r3, [sp, #0]
 8001d5c:	463a      	mov	r2, r7
 8001d5e:	464b      	mov	r3, r9
 8001d60:	9106      	str	r1, [sp, #24]
 8001d62:	f8cd 8010 	str.w	r8, [sp, #16]
 8001d66:	f8cd e00c 	str.w	lr, [sp, #12]
 8001d6a:	4628      	mov	r0, r5
 8001d6c:	f7ff fef0 	bl	8001b50 <__cvt>
 8001d70:	f008 03df 	and.w	r3, r8, #223	; 0xdf
 8001d74:	2b47      	cmp	r3, #71	; 0x47
 8001d76:	4607      	mov	r7, r0
 8001d78:	d109      	bne.n	8001d8e <_printf_float+0x11a>
 8001d7a:	9b0d      	ldr	r3, [sp, #52]	; 0x34
 8001d7c:	1cd8      	adds	r0, r3, #3
 8001d7e:	db02      	blt.n	8001d86 <_printf_float+0x112>
 8001d80:	6862      	ldr	r2, [r4, #4]
 8001d82:	4293      	cmp	r3, r2
 8001d84:	dd59      	ble.n	8001e3a <_printf_float+0x1c6>
 8001d86:	f1a8 0802 	sub.w	r8, r8, #2
 8001d8a:	fa5f f888 	uxtb.w	r8, r8
 8001d8e:	f1b8 0f65 	cmp.w	r8, #101	; 0x65
 8001d92:	990d      	ldr	r1, [sp, #52]	; 0x34
 8001d94:	d836      	bhi.n	8001e04 <_printf_float+0x190>
 8001d96:	3901      	subs	r1, #1
 8001d98:	4642      	mov	r2, r8
 8001d9a:	f104 0050 	add.w	r0, r4, #80	; 0x50
 8001d9e:	910d      	str	r1, [sp, #52]	; 0x34
 8001da0:	f7ff ff32 	bl	8001c08 <__exponent>
 8001da4:	9a0e      	ldr	r2, [sp, #56]	; 0x38
 8001da6:	4681      	mov	r9, r0
 8001da8:	1883      	adds	r3, r0, r2
 8001daa:	2a01      	cmp	r2, #1
 8001dac:	6123      	str	r3, [r4, #16]
 8001dae:	dc02      	bgt.n	8001db6 <_printf_float+0x142>
 8001db0:	6822      	ldr	r2, [r4, #0]
 8001db2:	07d1      	lsls	r1, r2, #31
 8001db4:	d501      	bpl.n	8001dba <_printf_float+0x146>
 8001db6:	3301      	adds	r3, #1
 8001db8:	6123      	str	r3, [r4, #16]
 8001dba:	f89d 3033 	ldrb.w	r3, [sp, #51]	; 0x33
 8001dbe:	2b00      	cmp	r3, #0
 8001dc0:	d0aa      	beq.n	8001d18 <_printf_float+0xa4>
 8001dc2:	232d      	movs	r3, #45	; 0x2d
 8001dc4:	f884 3043 	strb.w	r3, [r4, #67]	; 0x43
 8001dc8:	e7a6      	b.n	8001d18 <_printf_float+0xa4>
 8001dca:	f1b8 0f67 	cmp.w	r8, #103	; 0x67
 8001dce:	d002      	beq.n	8001dd6 <_printf_float+0x162>
 8001dd0:	f1b8 0f47 	cmp.w	r8, #71	; 0x47
 8001dd4:	d1b9      	bne.n	8001d4a <_printf_float+0xd6>
 8001dd6:	b19a      	cbz	r2, 8001e00 <_printf_float+0x18c>
 8001dd8:	2100      	movs	r1, #0
 8001dda:	9106      	str	r1, [sp, #24]
 8001ddc:	f10d 0133 	add.w	r1, sp, #51	; 0x33
 8001de0:	e88d 000c 	stmia.w	sp, {r2, r3}
 8001de4:	6023      	str	r3, [r4, #0]
 8001de6:	9005      	str	r0, [sp, #20]
 8001de8:	463a      	mov	r2, r7
 8001dea:	f8cd 8010 	str.w	r8, [sp, #16]
 8001dee:	f8cd e00c 	str.w	lr, [sp, #12]
 8001df2:	9102      	str	r1, [sp, #8]
 8001df4:	464b      	mov	r3, r9
 8001df6:	4628      	mov	r0, r5
 8001df8:	f7ff feaa 	bl	8001b50 <__cvt>
 8001dfc:	4607      	mov	r7, r0
 8001dfe:	e7bc      	b.n	8001d7a <_printf_float+0x106>
 8001e00:	2201      	movs	r2, #1
 8001e02:	e7a1      	b.n	8001d48 <_printf_float+0xd4>
 8001e04:	f1b8 0f66 	cmp.w	r8, #102	; 0x66
 8001e08:	d119      	bne.n	8001e3e <_printf_float+0x1ca>
 8001e0a:	2900      	cmp	r1, #0
 8001e0c:	6863      	ldr	r3, [r4, #4]
 8001e0e:	dd0c      	ble.n	8001e2a <_printf_float+0x1b6>
 8001e10:	6121      	str	r1, [r4, #16]
 8001e12:	b913      	cbnz	r3, 8001e1a <_printf_float+0x1a6>
 8001e14:	6822      	ldr	r2, [r4, #0]
 8001e16:	07d2      	lsls	r2, r2, #31
 8001e18:	d502      	bpl.n	8001e20 <_printf_float+0x1ac>
 8001e1a:	3301      	adds	r3, #1
 8001e1c:	440b      	add	r3, r1
 8001e1e:	6123      	str	r3, [r4, #16]
 8001e20:	9b0d      	ldr	r3, [sp, #52]	; 0x34
 8001e22:	f04f 0900 	mov.w	r9, #0
 8001e26:	65a3      	str	r3, [r4, #88]	; 0x58
 8001e28:	e7c7      	b.n	8001dba <_printf_float+0x146>
 8001e2a:	b913      	cbnz	r3, 8001e32 <_printf_float+0x1be>
 8001e2c:	6822      	ldr	r2, [r4, #0]
 8001e2e:	07d0      	lsls	r0, r2, #31
 8001e30:	d501      	bpl.n	8001e36 <_printf_float+0x1c2>
 8001e32:	3302      	adds	r3, #2
 8001e34:	e7f3      	b.n	8001e1e <_printf_float+0x1aa>
 8001e36:	2301      	movs	r3, #1
 8001e38:	e7f1      	b.n	8001e1e <_printf_float+0x1aa>
 8001e3a:	f04f 0867 	mov.w	r8, #103	; 0x67
 8001e3e:	9b0d      	ldr	r3, [sp, #52]	; 0x34
 8001e40:	9a0e      	ldr	r2, [sp, #56]	; 0x38
 8001e42:	4293      	cmp	r3, r2
 8001e44:	db05      	blt.n	8001e52 <_printf_float+0x1de>
 8001e46:	6822      	ldr	r2, [r4, #0]
 8001e48:	6123      	str	r3, [r4, #16]
 8001e4a:	07d1      	lsls	r1, r2, #31
 8001e4c:	d5e8      	bpl.n	8001e20 <_printf_float+0x1ac>
 8001e4e:	3301      	adds	r3, #1
 8001e50:	e7e5      	b.n	8001e1e <_printf_float+0x1aa>
 8001e52:	2b00      	cmp	r3, #0
 8001e54:	bfcc      	ite	gt
 8001e56:	2301      	movgt	r3, #1
 8001e58:	f1c3 0302 	rsble	r3, r3, #2
 8001e5c:	4413      	add	r3, r2
 8001e5e:	e7de      	b.n	8001e1e <_printf_float+0x1aa>
 8001e60:	6823      	ldr	r3, [r4, #0]
 8001e62:	055a      	lsls	r2, r3, #21
 8001e64:	d407      	bmi.n	8001e76 <_printf_float+0x202>
 8001e66:	6923      	ldr	r3, [r4, #16]
 8001e68:	463a      	mov	r2, r7
 8001e6a:	4659      	mov	r1, fp
 8001e6c:	4628      	mov	r0, r5
 8001e6e:	47b0      	blx	r6
 8001e70:	3001      	adds	r0, #1
 8001e72:	d12a      	bne.n	8001eca <_printf_float+0x256>
 8001e74:	e75a      	b.n	8001d2c <_printf_float+0xb8>
 8001e76:	f1b8 0f65 	cmp.w	r8, #101	; 0x65
 8001e7a:	f240 80dc 	bls.w	8002036 <_printf_float+0x3c2>
 8001e7e:	e9d4 0112 	ldrd	r0, r1, [r4, #72]	; 0x48
 8001e82:	2200      	movs	r2, #0
 8001e84:	2300      	movs	r3, #0
 8001e86:	f7fe fd8b 	bl	80009a0 <__aeabi_dcmpeq>
 8001e8a:	2800      	cmp	r0, #0
 8001e8c:	d039      	beq.n	8001f02 <_printf_float+0x28e>
 8001e8e:	2301      	movs	r3, #1
 8001e90:	4a36      	ldr	r2, [pc, #216]	; (8001f6c <_printf_float+0x2f8>)
 8001e92:	4659      	mov	r1, fp
 8001e94:	4628      	mov	r0, r5
 8001e96:	47b0      	blx	r6
 8001e98:	3001      	adds	r0, #1
 8001e9a:	f43f af47 	beq.w	8001d2c <_printf_float+0xb8>
 8001e9e:	9b0e      	ldr	r3, [sp, #56]	; 0x38
 8001ea0:	9a0d      	ldr	r2, [sp, #52]	; 0x34
 8001ea2:	429a      	cmp	r2, r3
 8001ea4:	db02      	blt.n	8001eac <_printf_float+0x238>
 8001ea6:	6823      	ldr	r3, [r4, #0]
 8001ea8:	07d8      	lsls	r0, r3, #31
 8001eaa:	d50e      	bpl.n	8001eca <_printf_float+0x256>
 8001eac:	9b0a      	ldr	r3, [sp, #40]	; 0x28
 8001eae:	9a09      	ldr	r2, [sp, #36]	; 0x24
 8001eb0:	4659      	mov	r1, fp
 8001eb2:	4628      	mov	r0, r5
 8001eb4:	47b0      	blx	r6
 8001eb6:	3001      	adds	r0, #1
 8001eb8:	f43f af38 	beq.w	8001d2c <_printf_float+0xb8>
 8001ebc:	2700      	movs	r7, #0
 8001ebe:	f104 081a 	add.w	r8, r4, #26
 8001ec2:	9b0e      	ldr	r3, [sp, #56]	; 0x38
 8001ec4:	3b01      	subs	r3, #1
 8001ec6:	429f      	cmp	r7, r3
 8001ec8:	db11      	blt.n	8001eee <_printf_float+0x27a>
 8001eca:	6823      	ldr	r3, [r4, #0]
 8001ecc:	079f      	lsls	r7, r3, #30
 8001ece:	d508      	bpl.n	8001ee2 <_printf_float+0x26e>
 8001ed0:	2700      	movs	r7, #0
 8001ed2:	f104 0819 	add.w	r8, r4, #25
 8001ed6:	68e3      	ldr	r3, [r4, #12]
 8001ed8:	9a0f      	ldr	r2, [sp, #60]	; 0x3c
 8001eda:	1a9b      	subs	r3, r3, r2
 8001edc:	429f      	cmp	r7, r3
 8001ede:	f2c0 80e7 	blt.w	80020b0 <_printf_float+0x43c>
 8001ee2:	68e0      	ldr	r0, [r4, #12]
 8001ee4:	9b0f      	ldr	r3, [sp, #60]	; 0x3c
 8001ee6:	4298      	cmp	r0, r3
 8001ee8:	bfb8      	it	lt
 8001eea:	4618      	movlt	r0, r3
 8001eec:	e720      	b.n	8001d30 <_printf_float+0xbc>
 8001eee:	2301      	movs	r3, #1
 8001ef0:	4642      	mov	r2, r8
 8001ef2:	4659      	mov	r1, fp
 8001ef4:	4628      	mov	r0, r5
 8001ef6:	47b0      	blx	r6
 8001ef8:	3001      	adds	r0, #1
 8001efa:	f43f af17 	beq.w	8001d2c <_printf_float+0xb8>
 8001efe:	3701      	adds	r7, #1
 8001f00:	e7df      	b.n	8001ec2 <_printf_float+0x24e>
 8001f02:	9b0d      	ldr	r3, [sp, #52]	; 0x34
 8001f04:	2b00      	cmp	r3, #0
 8001f06:	dc33      	bgt.n	8001f70 <_printf_float+0x2fc>
 8001f08:	2301      	movs	r3, #1
 8001f0a:	4a18      	ldr	r2, [pc, #96]	; (8001f6c <_printf_float+0x2f8>)
 8001f0c:	4659      	mov	r1, fp
 8001f0e:	4628      	mov	r0, r5
 8001f10:	47b0      	blx	r6
 8001f12:	3001      	adds	r0, #1
 8001f14:	f43f af0a 	beq.w	8001d2c <_printf_float+0xb8>
 8001f18:	9b0d      	ldr	r3, [sp, #52]	; 0x34
 8001f1a:	b923      	cbnz	r3, 8001f26 <_printf_float+0x2b2>
 8001f1c:	9b0e      	ldr	r3, [sp, #56]	; 0x38
 8001f1e:	b913      	cbnz	r3, 8001f26 <_printf_float+0x2b2>
 8001f20:	6823      	ldr	r3, [r4, #0]
 8001f22:	07d9      	lsls	r1, r3, #31
 8001f24:	d5d1      	bpl.n	8001eca <_printf_float+0x256>
 8001f26:	9b0a      	ldr	r3, [sp, #40]	; 0x28
 8001f28:	9a09      	ldr	r2, [sp, #36]	; 0x24
 8001f2a:	4659      	mov	r1, fp
 8001f2c:	4628      	mov	r0, r5
 8001f2e:	47b0      	blx	r6
 8001f30:	3001      	adds	r0, #1
 8001f32:	f43f aefb 	beq.w	8001d2c <_printf_float+0xb8>
 8001f36:	f04f 0800 	mov.w	r8, #0
 8001f3a:	f104 091a 	add.w	r9, r4, #26
 8001f3e:	9b0d      	ldr	r3, [sp, #52]	; 0x34
 8001f40:	425b      	negs	r3, r3
 8001f42:	4598      	cmp	r8, r3
 8001f44:	db01      	blt.n	8001f4a <_printf_float+0x2d6>
 8001f46:	9b0e      	ldr	r3, [sp, #56]	; 0x38
 8001f48:	e78e      	b.n	8001e68 <_printf_float+0x1f4>
 8001f4a:	2301      	movs	r3, #1
 8001f4c:	464a      	mov	r2, r9
 8001f4e:	4659      	mov	r1, fp
 8001f50:	4628      	mov	r0, r5
 8001f52:	47b0      	blx	r6
 8001f54:	3001      	adds	r0, #1
 8001f56:	f43f aee9 	beq.w	8001d2c <_printf_float+0xb8>
 8001f5a:	f108 0801 	add.w	r8, r8, #1
 8001f5e:	e7ee      	b.n	8001f3e <_printf_float+0x2ca>
 8001f60:	7fefffff 	.word	0x7fefffff
 8001f64:	08003cc0 	.word	0x08003cc0
 8001f68:	08003cc4 	.word	0x08003cc4
 8001f6c:	08003cd0 	.word	0x08003cd0
 8001f70:	9a0e      	ldr	r2, [sp, #56]	; 0x38
 8001f72:	6da3      	ldr	r3, [r4, #88]	; 0x58
 8001f74:	429a      	cmp	r2, r3
 8001f76:	bfa8      	it	ge
 8001f78:	461a      	movge	r2, r3
 8001f7a:	2a00      	cmp	r2, #0
 8001f7c:	4690      	mov	r8, r2
 8001f7e:	dc36      	bgt.n	8001fee <_printf_float+0x37a>
 8001f80:	f04f 0a00 	mov.w	sl, #0
 8001f84:	f104 031a 	add.w	r3, r4, #26
 8001f88:	ea28 78e8 	bic.w	r8, r8, r8, asr #31
 8001f8c:	930b      	str	r3, [sp, #44]	; 0x2c
 8001f8e:	f8d4 9058 	ldr.w	r9, [r4, #88]	; 0x58
 8001f92:	eba9 0308 	sub.w	r3, r9, r8
 8001f96:	459a      	cmp	sl, r3
 8001f98:	db31      	blt.n	8001ffe <_printf_float+0x38a>
 8001f9a:	9b0e      	ldr	r3, [sp, #56]	; 0x38
 8001f9c:	9a0d      	ldr	r2, [sp, #52]	; 0x34
 8001f9e:	429a      	cmp	r2, r3
 8001fa0:	db38      	blt.n	8002014 <_printf_float+0x3a0>
 8001fa2:	6823      	ldr	r3, [r4, #0]
 8001fa4:	07da      	lsls	r2, r3, #31
 8001fa6:	d435      	bmi.n	8002014 <_printf_float+0x3a0>
 8001fa8:	9b0e      	ldr	r3, [sp, #56]	; 0x38
 8001faa:	990d      	ldr	r1, [sp, #52]	; 0x34
 8001fac:	eba3 0209 	sub.w	r2, r3, r9
 8001fb0:	eba3 0801 	sub.w	r8, r3, r1
 8001fb4:	4590      	cmp	r8, r2
 8001fb6:	bfa8      	it	ge
 8001fb8:	4690      	movge	r8, r2
 8001fba:	f1b8 0f00 	cmp.w	r8, #0
 8001fbe:	dc31      	bgt.n	8002024 <_printf_float+0x3b0>
 8001fc0:	2700      	movs	r7, #0
 8001fc2:	ea28 78e8 	bic.w	r8, r8, r8, asr #31
 8001fc6:	f104 091a 	add.w	r9, r4, #26
 8001fca:	9a0d      	ldr	r2, [sp, #52]	; 0x34
 8001fcc:	9b0e      	ldr	r3, [sp, #56]	; 0x38
 8001fce:	1a9b      	subs	r3, r3, r2
 8001fd0:	eba3 0308 	sub.w	r3, r3, r8
 8001fd4:	429f      	cmp	r7, r3
 8001fd6:	f6bf af78 	bge.w	8001eca <_printf_float+0x256>
 8001fda:	2301      	movs	r3, #1
 8001fdc:	464a      	mov	r2, r9
 8001fde:	4659      	mov	r1, fp
 8001fe0:	4628      	mov	r0, r5
 8001fe2:	47b0      	blx	r6
 8001fe4:	3001      	adds	r0, #1
 8001fe6:	f43f aea1 	beq.w	8001d2c <_printf_float+0xb8>
 8001fea:	3701      	adds	r7, #1
 8001fec:	e7ed      	b.n	8001fca <_printf_float+0x356>
 8001fee:	4613      	mov	r3, r2
 8001ff0:	4659      	mov	r1, fp
 8001ff2:	463a      	mov	r2, r7
 8001ff4:	4628      	mov	r0, r5
 8001ff6:	47b0      	blx	r6
 8001ff8:	3001      	adds	r0, #1
 8001ffa:	d1c1      	bne.n	8001f80 <_printf_float+0x30c>
 8001ffc:	e696      	b.n	8001d2c <_printf_float+0xb8>
 8001ffe:	2301      	movs	r3, #1
 8002000:	9a0b      	ldr	r2, [sp, #44]	; 0x2c
 8002002:	4659      	mov	r1, fp
 8002004:	4628      	mov	r0, r5
 8002006:	47b0      	blx	r6
 8002008:	3001      	adds	r0, #1
 800200a:	f43f ae8f 	beq.w	8001d2c <_printf_float+0xb8>
 800200e:	f10a 0a01 	add.w	sl, sl, #1
 8002012:	e7bc      	b.n	8001f8e <_printf_float+0x31a>
 8002014:	9b0a      	ldr	r3, [sp, #40]	; 0x28
 8002016:	9a09      	ldr	r2, [sp, #36]	; 0x24
 8002018:	4659      	mov	r1, fp
 800201a:	4628      	mov	r0, r5
 800201c:	47b0      	blx	r6
 800201e:	3001      	adds	r0, #1
 8002020:	d1c2      	bne.n	8001fa8 <_printf_float+0x334>
 8002022:	e683      	b.n	8001d2c <_printf_float+0xb8>
 8002024:	4643      	mov	r3, r8
 8002026:	eb07 0209 	add.w	r2, r7, r9
 800202a:	4659      	mov	r1, fp
 800202c:	4628      	mov	r0, r5
 800202e:	47b0      	blx	r6
 8002030:	3001      	adds	r0, #1
 8002032:	d1c5      	bne.n	8001fc0 <_printf_float+0x34c>
 8002034:	e67a      	b.n	8001d2c <_printf_float+0xb8>
 8002036:	9a0e      	ldr	r2, [sp, #56]	; 0x38
 8002038:	2a01      	cmp	r2, #1
 800203a:	dc01      	bgt.n	8002040 <_printf_float+0x3cc>
 800203c:	07db      	lsls	r3, r3, #31
 800203e:	d534      	bpl.n	80020aa <_printf_float+0x436>
 8002040:	2301      	movs	r3, #1
 8002042:	463a      	mov	r2, r7
 8002044:	4659      	mov	r1, fp
 8002046:	4628      	mov	r0, r5
 8002048:	47b0      	blx	r6
 800204a:	3001      	adds	r0, #1
 800204c:	f43f ae6e 	beq.w	8001d2c <_printf_float+0xb8>
 8002050:	9b0a      	ldr	r3, [sp, #40]	; 0x28
 8002052:	9a09      	ldr	r2, [sp, #36]	; 0x24
 8002054:	4659      	mov	r1, fp
 8002056:	4628      	mov	r0, r5
 8002058:	47b0      	blx	r6
 800205a:	3001      	adds	r0, #1
 800205c:	f43f ae66 	beq.w	8001d2c <_printf_float+0xb8>
 8002060:	e9d4 0112 	ldrd	r0, r1, [r4, #72]	; 0x48
 8002064:	2200      	movs	r2, #0
 8002066:	2300      	movs	r3, #0
 8002068:	f7fe fc9a 	bl	80009a0 <__aeabi_dcmpeq>
 800206c:	b150      	cbz	r0, 8002084 <_printf_float+0x410>
 800206e:	2700      	movs	r7, #0
 8002070:	f104 081a 	add.w	r8, r4, #26
 8002074:	9b0e      	ldr	r3, [sp, #56]	; 0x38
 8002076:	3b01      	subs	r3, #1
 8002078:	429f      	cmp	r7, r3
 800207a:	db0c      	blt.n	8002096 <_printf_float+0x422>
 800207c:	464b      	mov	r3, r9
 800207e:	f104 0250 	add.w	r2, r4, #80	; 0x50
 8002082:	e6f2      	b.n	8001e6a <_printf_float+0x1f6>
 8002084:	9b0e      	ldr	r3, [sp, #56]	; 0x38
 8002086:	1c7a      	adds	r2, r7, #1
 8002088:	3b01      	subs	r3, #1
 800208a:	4659      	mov	r1, fp
 800208c:	4628      	mov	r0, r5
 800208e:	47b0      	blx	r6
 8002090:	3001      	adds	r0, #1
 8002092:	d1f3      	bne.n	800207c <_printf_float+0x408>
 8002094:	e64a      	b.n	8001d2c <_printf_float+0xb8>
 8002096:	2301      	movs	r3, #1
 8002098:	4642      	mov	r2, r8
 800209a:	4659      	mov	r1, fp
 800209c:	4628      	mov	r0, r5
 800209e:	47b0      	blx	r6
 80020a0:	3001      	adds	r0, #1
 80020a2:	f43f ae43 	beq.w	8001d2c <_printf_float+0xb8>
 80020a6:	3701      	adds	r7, #1
 80020a8:	e7e4      	b.n	8002074 <_printf_float+0x400>
 80020aa:	2301      	movs	r3, #1
 80020ac:	463a      	mov	r2, r7
 80020ae:	e7ec      	b.n	800208a <_printf_float+0x416>
 80020b0:	2301      	movs	r3, #1
 80020b2:	4642      	mov	r2, r8
 80020b4:	4659      	mov	r1, fp
 80020b6:	4628      	mov	r0, r5
 80020b8:	47b0      	blx	r6
 80020ba:	3001      	adds	r0, #1
 80020bc:	f43f ae36 	beq.w	8001d2c <_printf_float+0xb8>
 80020c0:	3701      	adds	r7, #1
 80020c2:	e708      	b.n	8001ed6 <_printf_float+0x262>
 80020c4:	463a      	mov	r2, r7
 80020c6:	464b      	mov	r3, r9
 80020c8:	4638      	mov	r0, r7
 80020ca:	4649      	mov	r1, r9
 80020cc:	f7fe fc9a 	bl	8000a04 <__aeabi_dcmpun>
 80020d0:	2800      	cmp	r0, #0
 80020d2:	f43f ae30 	beq.w	8001d36 <_printf_float+0xc2>
 80020d6:	4b01      	ldr	r3, [pc, #4]	; (80020dc <_printf_float+0x468>)
 80020d8:	4f01      	ldr	r7, [pc, #4]	; (80020e0 <_printf_float+0x46c>)
 80020da:	e612      	b.n	8001d02 <_printf_float+0x8e>
 80020dc:	08003cc8 	.word	0x08003cc8
 80020e0:	08003ccc 	.word	0x08003ccc

080020e4 <_printf_common>:
 80020e4:	e92d 47f0 	stmdb	sp!, {r4, r5, r6, r7, r8, r9, sl, lr}
 80020e8:	4691      	mov	r9, r2
 80020ea:	461f      	mov	r7, r3
 80020ec:	688a      	ldr	r2, [r1, #8]
 80020ee:	690b      	ldr	r3, [r1, #16]
 80020f0:	4606      	mov	r6, r0
 80020f2:	4293      	cmp	r3, r2
 80020f4:	bfb8      	it	lt
 80020f6:	4613      	movlt	r3, r2
 80020f8:	f8c9 3000 	str.w	r3, [r9]
 80020fc:	f891 2043 	ldrb.w	r2, [r1, #67]	; 0x43
 8002100:	460c      	mov	r4, r1
 8002102:	f8dd 8020 	ldr.w	r8, [sp, #32]
 8002106:	b112      	cbz	r2, 800210e <_printf_common+0x2a>
 8002108:	3301      	adds	r3, #1
 800210a:	f8c9 3000 	str.w	r3, [r9]
 800210e:	6823      	ldr	r3, [r4, #0]
 8002110:	0699      	lsls	r1, r3, #26
 8002112:	bf42      	ittt	mi
 8002114:	f8d9 3000 	ldrmi.w	r3, [r9]
 8002118:	3302      	addmi	r3, #2
 800211a:	f8c9 3000 	strmi.w	r3, [r9]
 800211e:	6825      	ldr	r5, [r4, #0]
 8002120:	f015 0506 	ands.w	r5, r5, #6
 8002124:	d107      	bne.n	8002136 <_printf_common+0x52>
 8002126:	f104 0a19 	add.w	sl, r4, #25
 800212a:	68e3      	ldr	r3, [r4, #12]
 800212c:	f8d9 2000 	ldr.w	r2, [r9]
 8002130:	1a9b      	subs	r3, r3, r2
 8002132:	429d      	cmp	r5, r3
 8002134:	db2a      	blt.n	800218c <_printf_common+0xa8>
 8002136:	f894 3043 	ldrb.w	r3, [r4, #67]	; 0x43
 800213a:	6822      	ldr	r2, [r4, #0]
 800213c:	3300      	adds	r3, #0
 800213e:	bf18      	it	ne
 8002140:	2301      	movne	r3, #1
 8002142:	0692      	lsls	r2, r2, #26
 8002144:	d42f      	bmi.n	80021a6 <_printf_common+0xc2>
 8002146:	f104 0243 	add.w	r2, r4, #67	; 0x43
 800214a:	4639      	mov	r1, r7
 800214c:	4630      	mov	r0, r6
 800214e:	47c0      	blx	r8
 8002150:	3001      	adds	r0, #1
 8002152:	d022      	beq.n	800219a <_printf_common+0xb6>
 8002154:	6823      	ldr	r3, [r4, #0]
 8002156:	68e5      	ldr	r5, [r4, #12]
 8002158:	f003 0306 	and.w	r3, r3, #6
 800215c:	2b04      	cmp	r3, #4
 800215e:	bf18      	it	ne
 8002160:	2500      	movne	r5, #0
 8002162:	f8d9 2000 	ldr.w	r2, [r9]
 8002166:	f04f 0900 	mov.w	r9, #0
 800216a:	bf08      	it	eq
 800216c:	1aad      	subeq	r5, r5, r2
 800216e:	68a3      	ldr	r3, [r4, #8]
 8002170:	6922      	ldr	r2, [r4, #16]
 8002172:	bf08      	it	eq
 8002174:	ea25 75e5 	biceq.w	r5, r5, r5, asr #31
 8002178:	4293      	cmp	r3, r2
 800217a:	bfc4      	itt	gt
 800217c:	1a9b      	subgt	r3, r3, r2
 800217e:	18ed      	addgt	r5, r5, r3
 8002180:	341a      	adds	r4, #26
 8002182:	454d      	cmp	r5, r9
 8002184:	d11b      	bne.n	80021be <_printf_common+0xda>
 8002186:	2000      	movs	r0, #0
 8002188:	e8bd 87f0 	ldmia.w	sp!, {r4, r5, r6, r7, r8, r9, sl, pc}
 800218c:	2301      	movs	r3, #1
 800218e:	4652      	mov	r2, sl
 8002190:	4639      	mov	r1, r7
 8002192:	4630      	mov	r0, r6
 8002194:	47c0      	blx	r8
 8002196:	3001      	adds	r0, #1
 8002198:	d103      	bne.n	80021a2 <_printf_common+0xbe>
 800219a:	f04f 30ff 	mov.w	r0, #4294967295	; 0xffffffff
 800219e:	e8bd 87f0 	ldmia.w	sp!, {r4, r5, r6, r7, r8, r9, sl, pc}
 80021a2:	3501      	adds	r5, #1
 80021a4:	e7c1      	b.n	800212a <_printf_common+0x46>
 80021a6:	2030      	movs	r0, #48	; 0x30
 80021a8:	18e1      	adds	r1, r4, r3
 80021aa:	f881 0043 	strb.w	r0, [r1, #67]	; 0x43
 80021ae:	1c5a      	adds	r2, r3, #1
 80021b0:	f894 1045 	ldrb.w	r1, [r4, #69]	; 0x45
 80021b4:	4422      	add	r2, r4
 80021b6:	3302      	adds	r3, #2
 80021b8:	f882 1043 	strb.w	r1, [r2, #67]	; 0x43
 80021bc:	e7c3      	b.n	8002146 <_printf_common+0x62>
 80021be:	2301      	movs	r3, #1
 80021c0:	4622      	mov	r2, r4
 80021c2:	4639      	mov	r1, r7
 80021c4:	4630      	mov	r0, r6
 80021c6:	47c0      	blx	r8
 80021c8:	3001      	adds	r0, #1
 80021ca:	d0e6      	beq.n	800219a <_printf_common+0xb6>
 80021cc:	f109 0901 	add.w	r9, r9, #1
 80021d0:	e7d7      	b.n	8002182 <_printf_common+0x9e>
	...

080021d4 <_printf_i>:
 80021d4:	e92d 43f0 	stmdb	sp!, {r4, r5, r6, r7, r8, r9, lr}
 80021d8:	4617      	mov	r7, r2
 80021da:	7e0a      	ldrb	r2, [r1, #24]
 80021dc:	b085      	sub	sp, #20
 80021de:	2a6e      	cmp	r2, #110	; 0x6e
 80021e0:	4698      	mov	r8, r3
 80021e2:	4606      	mov	r6, r0
 80021e4:	460c      	mov	r4, r1
 80021e6:	9b0c      	ldr	r3, [sp, #48]	; 0x30
 80021e8:	f101 0e43 	add.w	lr, r1, #67	; 0x43
 80021ec:	f000 80bc 	beq.w	8002368 <_printf_i+0x194>
 80021f0:	d81a      	bhi.n	8002228 <_printf_i+0x54>
 80021f2:	2a63      	cmp	r2, #99	; 0x63
 80021f4:	d02e      	beq.n	8002254 <_printf_i+0x80>
 80021f6:	d80a      	bhi.n	800220e <_printf_i+0x3a>
 80021f8:	2a00      	cmp	r2, #0
 80021fa:	f000 80c8 	beq.w	800238e <_printf_i+0x1ba>
 80021fe:	2a58      	cmp	r2, #88	; 0x58
 8002200:	f000 808a 	beq.w	8002318 <_printf_i+0x144>
 8002204:	f104 0542 	add.w	r5, r4, #66	; 0x42
 8002208:	f884 2042 	strb.w	r2, [r4, #66]	; 0x42
 800220c:	e02a      	b.n	8002264 <_printf_i+0x90>
 800220e:	2a64      	cmp	r2, #100	; 0x64
 8002210:	d001      	beq.n	8002216 <_printf_i+0x42>
 8002212:	2a69      	cmp	r2, #105	; 0x69
 8002214:	d1f6      	bne.n	8002204 <_printf_i+0x30>
 8002216:	6821      	ldr	r1, [r4, #0]
 8002218:	681a      	ldr	r2, [r3, #0]
 800221a:	f011 0f80 	tst.w	r1, #128	; 0x80
 800221e:	d023      	beq.n	8002268 <_printf_i+0x94>
 8002220:	1d11      	adds	r1, r2, #4
 8002222:	6019      	str	r1, [r3, #0]
 8002224:	6813      	ldr	r3, [r2, #0]
 8002226:	e027      	b.n	8002278 <_printf_i+0xa4>
 8002228:	2a73      	cmp	r2, #115	; 0x73
 800222a:	f000 80b4 	beq.w	8002396 <_printf_i+0x1c2>
 800222e:	d808      	bhi.n	8002242 <_printf_i+0x6e>
 8002230:	2a6f      	cmp	r2, #111	; 0x6f
 8002232:	d02a      	beq.n	800228a <_printf_i+0xb6>
 8002234:	2a70      	cmp	r2, #112	; 0x70
 8002236:	d1e5      	bne.n	8002204 <_printf_i+0x30>
 8002238:	680a      	ldr	r2, [r1, #0]
 800223a:	f042 0220 	orr.w	r2, r2, #32
 800223e:	600a      	str	r2, [r1, #0]
 8002240:	e003      	b.n	800224a <_printf_i+0x76>
 8002242:	2a75      	cmp	r2, #117	; 0x75
 8002244:	d021      	beq.n	800228a <_printf_i+0xb6>
 8002246:	2a78      	cmp	r2, #120	; 0x78
 8002248:	d1dc      	bne.n	8002204 <_printf_i+0x30>
 800224a:	2278      	movs	r2, #120	; 0x78
 800224c:	496f      	ldr	r1, [pc, #444]	; (800240c <_printf_i+0x238>)
 800224e:	f884 2045 	strb.w	r2, [r4, #69]	; 0x45
 8002252:	e064      	b.n	800231e <_printf_i+0x14a>
 8002254:	681a      	ldr	r2, [r3, #0]
 8002256:	f101 0542 	add.w	r5, r1, #66	; 0x42
 800225a:	1d11      	adds	r1, r2, #4
 800225c:	6019      	str	r1, [r3, #0]
 800225e:	6813      	ldr	r3, [r2, #0]
 8002260:	f884 3042 	strb.w	r3, [r4, #66]	; 0x42
 8002264:	2301      	movs	r3, #1
 8002266:	e0a3      	b.n	80023b0 <_printf_i+0x1dc>
 8002268:	f011 0f40 	tst.w	r1, #64	; 0x40
 800226c:	f102 0104 	add.w	r1, r2, #4
 8002270:	6019      	str	r1, [r3, #0]
 8002272:	d0d7      	beq.n	8002224 <_printf_i+0x50>
 8002274:	f9b2 3000 	ldrsh.w	r3, [r2]
 8002278:	2b00      	cmp	r3, #0
 800227a:	da03      	bge.n	8002284 <_printf_i+0xb0>
 800227c:	222d      	movs	r2, #45	; 0x2d
 800227e:	425b      	negs	r3, r3
 8002280:	f884 2043 	strb.w	r2, [r4, #67]	; 0x43
 8002284:	4962      	ldr	r1, [pc, #392]	; (8002410 <_printf_i+0x23c>)
 8002286:	220a      	movs	r2, #10
 8002288:	e017      	b.n	80022ba <_printf_i+0xe6>
 800228a:	6820      	ldr	r0, [r4, #0]
 800228c:	6819      	ldr	r1, [r3, #0]
 800228e:	f010 0f80 	tst.w	r0, #128	; 0x80
 8002292:	d003      	beq.n	800229c <_printf_i+0xc8>
 8002294:	1d08      	adds	r0, r1, #4
 8002296:	6018      	str	r0, [r3, #0]
 8002298:	680b      	ldr	r3, [r1, #0]
 800229a:	e006      	b.n	80022aa <_printf_i+0xd6>
 800229c:	f010 0f40 	tst.w	r0, #64	; 0x40
 80022a0:	f101 0004 	add.w	r0, r1, #4
 80022a4:	6018      	str	r0, [r3, #0]
 80022a6:	d0f7      	beq.n	8002298 <_printf_i+0xc4>
 80022a8:	880b      	ldrh	r3, [r1, #0]
 80022aa:	2a6f      	cmp	r2, #111	; 0x6f
 80022ac:	bf14      	ite	ne
 80022ae:	220a      	movne	r2, #10
 80022b0:	2208      	moveq	r2, #8
 80022b2:	4957      	ldr	r1, [pc, #348]	; (8002410 <_printf_i+0x23c>)
 80022b4:	2000      	movs	r0, #0
 80022b6:	f884 0043 	strb.w	r0, [r4, #67]	; 0x43
 80022ba:	6865      	ldr	r5, [r4, #4]
 80022bc:	2d00      	cmp	r5, #0
 80022be:	60a5      	str	r5, [r4, #8]
 80022c0:	f2c0 809c 	blt.w	80023fc <_printf_i+0x228>
 80022c4:	6820      	ldr	r0, [r4, #0]
 80022c6:	f020 0004 	bic.w	r0, r0, #4
 80022ca:	6020      	str	r0, [r4, #0]
 80022cc:	2b00      	cmp	r3, #0
 80022ce:	d13f      	bne.n	8002350 <_printf_i+0x17c>
 80022d0:	2d00      	cmp	r5, #0
 80022d2:	f040 8095 	bne.w	8002400 <_printf_i+0x22c>
 80022d6:	4675      	mov	r5, lr
 80022d8:	2a08      	cmp	r2, #8
 80022da:	d10b      	bne.n	80022f4 <_printf_i+0x120>
 80022dc:	6823      	ldr	r3, [r4, #0]
 80022de:	07da      	lsls	r2, r3, #31
 80022e0:	d508      	bpl.n	80022f4 <_printf_i+0x120>
 80022e2:	6923      	ldr	r3, [r4, #16]
 80022e4:	6862      	ldr	r2, [r4, #4]
 80022e6:	429a      	cmp	r2, r3
 80022e8:	bfde      	ittt	le
 80022ea:	2330      	movle	r3, #48	; 0x30
 80022ec:	f805 3c01 	strble.w	r3, [r5, #-1]
 80022f0:	f105 35ff 	addle.w	r5, r5, #4294967295	; 0xffffffff
 80022f4:	ebae 0305 	sub.w	r3, lr, r5
 80022f8:	6123      	str	r3, [r4, #16]
 80022fa:	f8cd 8000 	str.w	r8, [sp]
 80022fe:	463b      	mov	r3, r7
 8002300:	aa03      	add	r2, sp, #12
 8002302:	4621      	mov	r1, r4
 8002304:	4630      	mov	r0, r6
 8002306:	f7ff feed 	bl	80020e4 <_printf_common>
 800230a:	3001      	adds	r0, #1
 800230c:	d155      	bne.n	80023ba <_printf_i+0x1e6>
 800230e:	f04f 30ff 	mov.w	r0, #4294967295	; 0xffffffff
 8002312:	b005      	add	sp, #20
 8002314:	e8bd 83f0 	ldmia.w	sp!, {r4, r5, r6, r7, r8, r9, pc}
 8002318:	f881 2045 	strb.w	r2, [r1, #69]	; 0x45
 800231c:	493c      	ldr	r1, [pc, #240]	; (8002410 <_printf_i+0x23c>)
 800231e:	6822      	ldr	r2, [r4, #0]
 8002320:	6818      	ldr	r0, [r3, #0]
 8002322:	f012 0f80 	tst.w	r2, #128	; 0x80
 8002326:	f100 0504 	add.w	r5, r0, #4
 800232a:	601d      	str	r5, [r3, #0]
 800232c:	d001      	beq.n	8002332 <_printf_i+0x15e>
 800232e:	6803      	ldr	r3, [r0, #0]
 8002330:	e002      	b.n	8002338 <_printf_i+0x164>
 8002332:	0655      	lsls	r5, r2, #25
 8002334:	d5fb      	bpl.n	800232e <_printf_i+0x15a>
 8002336:	8803      	ldrh	r3, [r0, #0]
 8002338:	07d0      	lsls	r0, r2, #31
 800233a:	bf44      	itt	mi
 800233c:	f042 0220 	orrmi.w	r2, r2, #32
 8002340:	6022      	strmi	r2, [r4, #0]
 8002342:	b91b      	cbnz	r3, 800234c <_printf_i+0x178>
 8002344:	6822      	ldr	r2, [r4, #0]
 8002346:	f022 0220 	bic.w	r2, r2, #32
 800234a:	6022      	str	r2, [r4, #0]
 800234c:	2210      	movs	r2, #16
 800234e:	e7b1      	b.n	80022b4 <_printf_i+0xe0>
 8002350:	4675      	mov	r5, lr
 8002352:	fbb3 f0f2 	udiv	r0, r3, r2
 8002356:	fb02 3310 	mls	r3, r2, r0, r3
 800235a:	5ccb      	ldrb	r3, [r1, r3]
 800235c:	f805 3d01 	strb.w	r3, [r5, #-1]!
 8002360:	4603      	mov	r3, r0
 8002362:	2800      	cmp	r0, #0
 8002364:	d1f5      	bne.n	8002352 <_printf_i+0x17e>
 8002366:	e7b7      	b.n	80022d8 <_printf_i+0x104>
 8002368:	6808      	ldr	r0, [r1, #0]
 800236a:	681a      	ldr	r2, [r3, #0]
 800236c:	f010 0f80 	tst.w	r0, #128	; 0x80
 8002370:	6949      	ldr	r1, [r1, #20]
 8002372:	d004      	beq.n	800237e <_printf_i+0x1aa>
 8002374:	1d10      	adds	r0, r2, #4
 8002376:	6018      	str	r0, [r3, #0]
 8002378:	6813      	ldr	r3, [r2, #0]
 800237a:	6019      	str	r1, [r3, #0]
 800237c:	e007      	b.n	800238e <_printf_i+0x1ba>
 800237e:	f010 0f40 	tst.w	r0, #64	; 0x40
 8002382:	f102 0004 	add.w	r0, r2, #4
 8002386:	6018      	str	r0, [r3, #0]
 8002388:	6813      	ldr	r3, [r2, #0]
 800238a:	d0f6      	beq.n	800237a <_printf_i+0x1a6>
 800238c:	8019      	strh	r1, [r3, #0]
 800238e:	2300      	movs	r3, #0
 8002390:	4675      	mov	r5, lr
 8002392:	6123      	str	r3, [r4, #16]
 8002394:	e7b1      	b.n	80022fa <_printf_i+0x126>
 8002396:	681a      	ldr	r2, [r3, #0]
 8002398:	1d11      	adds	r1, r2, #4
 800239a:	6019      	str	r1, [r3, #0]
 800239c:	6815      	ldr	r5, [r2, #0]
 800239e:	2100      	movs	r1, #0
 80023a0:	6862      	ldr	r2, [r4, #4]
 80023a2:	4628      	mov	r0, r5
 80023a4:	f000 fee2 	bl	800316c <memchr>
 80023a8:	b108      	cbz	r0, 80023ae <_printf_i+0x1da>
 80023aa:	1b40      	subs	r0, r0, r5
 80023ac:	6060      	str	r0, [r4, #4]
 80023ae:	6863      	ldr	r3, [r4, #4]
 80023b0:	6123      	str	r3, [r4, #16]
 80023b2:	2300      	movs	r3, #0
 80023b4:	f884 3043 	strb.w	r3, [r4, #67]	; 0x43
 80023b8:	e79f      	b.n	80022fa <_printf_i+0x126>
 80023ba:	6923      	ldr	r3, [r4, #16]
 80023bc:	462a      	mov	r2, r5
 80023be:	4639      	mov	r1, r7
 80023c0:	4630      	mov	r0, r6
 80023c2:	47c0      	blx	r8
 80023c4:	3001      	adds	r0, #1
 80023c6:	d0a2      	beq.n	800230e <_printf_i+0x13a>
 80023c8:	6823      	ldr	r3, [r4, #0]
 80023ca:	079b      	lsls	r3, r3, #30
 80023cc:	d507      	bpl.n	80023de <_printf_i+0x20a>
 80023ce:	2500      	movs	r5, #0
 80023d0:	f104 0919 	add.w	r9, r4, #25
 80023d4:	68e3      	ldr	r3, [r4, #12]
 80023d6:	9a03      	ldr	r2, [sp, #12]
 80023d8:	1a9b      	subs	r3, r3, r2
 80023da:	429d      	cmp	r5, r3
 80023dc:	db05      	blt.n	80023ea <_printf_i+0x216>
 80023de:	68e0      	ldr	r0, [r4, #12]
 80023e0:	9b03      	ldr	r3, [sp, #12]
 80023e2:	4298      	cmp	r0, r3
 80023e4:	bfb8      	it	lt
 80023e6:	4618      	movlt	r0, r3
 80023e8:	e793      	b.n	8002312 <_printf_i+0x13e>
 80023ea:	2301      	movs	r3, #1
 80023ec:	464a      	mov	r2, r9
 80023ee:	4639      	mov	r1, r7
 80023f0:	4630      	mov	r0, r6
 80023f2:	47c0      	blx	r8
 80023f4:	3001      	adds	r0, #1
 80023f6:	d08a      	beq.n	800230e <_printf_i+0x13a>
 80023f8:	3501      	adds	r5, #1
 80023fa:	e7eb      	b.n	80023d4 <_printf_i+0x200>
 80023fc:	2b00      	cmp	r3, #0
 80023fe:	d1a7      	bne.n	8002350 <_printf_i+0x17c>
 8002400:	780b      	ldrb	r3, [r1, #0]
 8002402:	f104 0542 	add.w	r5, r4, #66	; 0x42
 8002406:	f884 3042 	strb.w	r3, [r4, #66]	; 0x42
 800240a:	e765      	b.n	80022d8 <_printf_i+0x104>
 800240c:	08003ce3 	.word	0x08003ce3
 8002410:	08003cd2 	.word	0x08003cd2

08002414 <sniprintf>:
 8002414:	b40c      	push	{r2, r3}
 8002416:	b530      	push	{r4, r5, lr}
 8002418:	4b17      	ldr	r3, [pc, #92]	; (8002478 <sniprintf+0x64>)
 800241a:	1e0c      	subs	r4, r1, #0
 800241c:	b09d      	sub	sp, #116	; 0x74
 800241e:	681d      	ldr	r5, [r3, #0]
 8002420:	da08      	bge.n	8002434 <sniprintf+0x20>
 8002422:	238b      	movs	r3, #139	; 0x8b
 8002424:	f04f 30ff 	mov.w	r0, #4294967295	; 0xffffffff
 8002428:	602b      	str	r3, [r5, #0]
 800242a:	b01d      	add	sp, #116	; 0x74
 800242c:	e8bd 4030 	ldmia.w	sp!, {r4, r5, lr}
 8002430:	b002      	add	sp, #8
 8002432:	4770      	bx	lr
 8002434:	f44f 7302 	mov.w	r3, #520	; 0x208
 8002438:	f8ad 3014 	strh.w	r3, [sp, #20]
 800243c:	bf0c      	ite	eq
 800243e:	4623      	moveq	r3, r4
 8002440:	f104 33ff 	addne.w	r3, r4, #4294967295	; 0xffffffff
 8002444:	9304      	str	r3, [sp, #16]
 8002446:	9307      	str	r3, [sp, #28]
 8002448:	f64f 73ff 	movw	r3, #65535	; 0xffff
 800244c:	9002      	str	r0, [sp, #8]
 800244e:	9006      	str	r0, [sp, #24]
 8002450:	f8ad 3016 	strh.w	r3, [sp, #22]
 8002454:	9a20      	ldr	r2, [sp, #128]	; 0x80
 8002456:	ab21      	add	r3, sp, #132	; 0x84
 8002458:	a902      	add	r1, sp, #8
 800245a:	4628      	mov	r0, r5
 800245c:	9301      	str	r3, [sp, #4]
 800245e:	f001 fa83 	bl	8003968 <_svfiprintf_r>
 8002462:	1c43      	adds	r3, r0, #1
 8002464:	bfbc      	itt	lt
 8002466:	238b      	movlt	r3, #139	; 0x8b
 8002468:	602b      	strlt	r3, [r5, #0]
 800246a:	2c00      	cmp	r4, #0
 800246c:	d0dd      	beq.n	800242a <sniprintf+0x16>
 800246e:	2200      	movs	r2, #0
 8002470:	9b02      	ldr	r3, [sp, #8]
 8002472:	701a      	strb	r2, [r3, #0]
 8002474:	e7d9      	b.n	800242a <sniprintf+0x16>
 8002476:	bf00      	nop
 8002478:	20000010 	.word	0x20000010

0800247c <quorem>:
 800247c:	e92d 4ff7 	stmdb	sp!, {r0, r1, r2, r4, r5, r6, r7, r8, r9, sl, fp, lr}
 8002480:	6903      	ldr	r3, [r0, #16]
 8002482:	690c      	ldr	r4, [r1, #16]
 8002484:	4680      	mov	r8, r0
 8002486:	429c      	cmp	r4, r3
 8002488:	f300 8082 	bgt.w	8002590 <quorem+0x114>
 800248c:	3c01      	subs	r4, #1
 800248e:	f101 0714 	add.w	r7, r1, #20
 8002492:	f100 0614 	add.w	r6, r0, #20
 8002496:	f857 5024 	ldr.w	r5, [r7, r4, lsl #2]
 800249a:	f856 0024 	ldr.w	r0, [r6, r4, lsl #2]
 800249e:	3501      	adds	r5, #1
 80024a0:	fbb0 f5f5 	udiv	r5, r0, r5
 80024a4:	ea4f 0e84 	mov.w	lr, r4, lsl #2
 80024a8:	eb06 030e 	add.w	r3, r6, lr
 80024ac:	eb07 090e 	add.w	r9, r7, lr
 80024b0:	9301      	str	r3, [sp, #4]
 80024b2:	b38d      	cbz	r5, 8002518 <quorem+0x9c>
 80024b4:	f04f 0a00 	mov.w	sl, #0
 80024b8:	4638      	mov	r0, r7
 80024ba:	46b4      	mov	ip, r6
 80024bc:	46d3      	mov	fp, sl
 80024be:	f850 2b04 	ldr.w	r2, [r0], #4
 80024c2:	b293      	uxth	r3, r2
 80024c4:	fb05 a303 	mla	r3, r5, r3, sl
 80024c8:	0c12      	lsrs	r2, r2, #16
 80024ca:	ea4f 4a13 	mov.w	sl, r3, lsr #16
 80024ce:	fb05 a202 	mla	r2, r5, r2, sl
 80024d2:	b29b      	uxth	r3, r3
 80024d4:	ebab 0303 	sub.w	r3, fp, r3
 80024d8:	f8bc b000 	ldrh.w	fp, [ip]
 80024dc:	ea4f 4a12 	mov.w	sl, r2, lsr #16
 80024e0:	445b      	add	r3, fp
 80024e2:	fa1f fb82 	uxth.w	fp, r2
 80024e6:	f8dc 2000 	ldr.w	r2, [ip]
 80024ea:	4581      	cmp	r9, r0
 80024ec:	ebcb 4212 	rsb	r2, fp, r2, lsr #16
 80024f0:	eb02 4223 	add.w	r2, r2, r3, asr #16
 80024f4:	b29b      	uxth	r3, r3
 80024f6:	ea43 4302 	orr.w	r3, r3, r2, lsl #16
 80024fa:	ea4f 4b22 	mov.w	fp, r2, asr #16
 80024fe:	f84c 3b04 	str.w	r3, [ip], #4
 8002502:	d2dc      	bcs.n	80024be <quorem+0x42>
 8002504:	f856 300e 	ldr.w	r3, [r6, lr]
 8002508:	b933      	cbnz	r3, 8002518 <quorem+0x9c>
 800250a:	9b01      	ldr	r3, [sp, #4]
 800250c:	3b04      	subs	r3, #4
 800250e:	429e      	cmp	r6, r3
 8002510:	461a      	mov	r2, r3
 8002512:	d331      	bcc.n	8002578 <quorem+0xfc>
 8002514:	f8c8 4010 	str.w	r4, [r8, #16]
 8002518:	4640      	mov	r0, r8
 800251a:	f001 f848 	bl	80035ae <__mcmp>
 800251e:	2800      	cmp	r0, #0
 8002520:	db26      	blt.n	8002570 <quorem+0xf4>
 8002522:	4630      	mov	r0, r6
 8002524:	f04f 0e00 	mov.w	lr, #0
 8002528:	3501      	adds	r5, #1
 800252a:	f857 1b04 	ldr.w	r1, [r7], #4
 800252e:	f8d0 c000 	ldr.w	ip, [r0]
 8002532:	b28b      	uxth	r3, r1
 8002534:	ebae 0303 	sub.w	r3, lr, r3
 8002538:	fa1f f28c 	uxth.w	r2, ip
 800253c:	4413      	add	r3, r2
 800253e:	0c0a      	lsrs	r2, r1, #16
 8002540:	ebc2 421c 	rsb	r2, r2, ip, lsr #16
 8002544:	eb02 4223 	add.w	r2, r2, r3, asr #16
 8002548:	b29b      	uxth	r3, r3
 800254a:	ea43 4302 	orr.w	r3, r3, r2, lsl #16
 800254e:	45b9      	cmp	r9, r7
 8002550:	ea4f 4e22 	mov.w	lr, r2, asr #16
 8002554:	f840 3b04 	str.w	r3, [r0], #4
 8002558:	d2e7      	bcs.n	800252a <quorem+0xae>
 800255a:	f856 2024 	ldr.w	r2, [r6, r4, lsl #2]
 800255e:	eb06 0384 	add.w	r3, r6, r4, lsl #2
 8002562:	b92a      	cbnz	r2, 8002570 <quorem+0xf4>
 8002564:	3b04      	subs	r3, #4
 8002566:	429e      	cmp	r6, r3
 8002568:	461a      	mov	r2, r3
 800256a:	d30b      	bcc.n	8002584 <quorem+0x108>
 800256c:	f8c8 4010 	str.w	r4, [r8, #16]
 8002570:	4628      	mov	r0, r5
 8002572:	b003      	add	sp, #12
 8002574:	e8bd 8ff0 	ldmia.w	sp!, {r4, r5, r6, r7, r8, r9, sl, fp, pc}
 8002578:	6812      	ldr	r2, [r2, #0]
 800257a:	3b04      	subs	r3, #4
 800257c:	2a00      	cmp	r2, #0
 800257e:	d1c9      	bne.n	8002514 <quorem+0x98>
 8002580:	3c01      	subs	r4, #1
 8002582:	e7c4      	b.n	800250e <quorem+0x92>
 8002584:	6812      	ldr	r2, [r2, #0]
 8002586:	3b04      	subs	r3, #4
 8002588:	2a00      	cmp	r2, #0
 800258a:	d1ef      	bne.n	800256c <quorem+0xf0>
 800258c:	3c01      	subs	r4, #1
 800258e:	e7ea      	b.n	8002566 <quorem+0xea>
 8002590:	2000      	movs	r0, #0
 8002592:	e7ee      	b.n	8002572 <quorem+0xf6>
 8002594:	0000      	movs	r0, r0
	...

08002598 <_dtoa_r>:
 8002598:	e92d 4ff0 	stmdb	sp!, {r4, r5, r6, r7, r8, r9, sl, fp, lr}
 800259c:	6a46      	ldr	r6, [r0, #36]	; 0x24
 800259e:	b095      	sub	sp, #84	; 0x54
 80025a0:	4604      	mov	r4, r0
 80025a2:	9d21      	ldr	r5, [sp, #132]	; 0x84
 80025a4:	e9cd 2302 	strd	r2, r3, [sp, #8]
 80025a8:	b93e      	cbnz	r6, 80025ba <_dtoa_r+0x22>
 80025aa:	2010      	movs	r0, #16
 80025ac:	f000 fdd6 	bl	800315c <malloc>
 80025b0:	6260      	str	r0, [r4, #36]	; 0x24
 80025b2:	6046      	str	r6, [r0, #4]
 80025b4:	6086      	str	r6, [r0, #8]
 80025b6:	6006      	str	r6, [r0, #0]
 80025b8:	60c6      	str	r6, [r0, #12]
 80025ba:	6a63      	ldr	r3, [r4, #36]	; 0x24
 80025bc:	6819      	ldr	r1, [r3, #0]
 80025be:	b151      	cbz	r1, 80025d6 <_dtoa_r+0x3e>
 80025c0:	685a      	ldr	r2, [r3, #4]
 80025c2:	2301      	movs	r3, #1
 80025c4:	4093      	lsls	r3, r2
 80025c6:	604a      	str	r2, [r1, #4]
 80025c8:	608b      	str	r3, [r1, #8]
 80025ca:	4620      	mov	r0, r4
 80025cc:	f000 fe1b 	bl	8003206 <_Bfree>
 80025d0:	2200      	movs	r2, #0
 80025d2:	6a63      	ldr	r3, [r4, #36]	; 0x24
 80025d4:	601a      	str	r2, [r3, #0]
 80025d6:	9b03      	ldr	r3, [sp, #12]
 80025d8:	2b00      	cmp	r3, #0
 80025da:	bfb7      	itett	lt
 80025dc:	2301      	movlt	r3, #1
 80025de:	2300      	movge	r3, #0
 80025e0:	602b      	strlt	r3, [r5, #0]
 80025e2:	9b03      	ldrlt	r3, [sp, #12]
 80025e4:	bfae      	itee	ge
 80025e6:	602b      	strge	r3, [r5, #0]
 80025e8:	f023 4300 	biclt.w	r3, r3, #2147483648	; 0x80000000
 80025ec:	9303      	strlt	r3, [sp, #12]
 80025ee:	f8dd 900c 	ldr.w	r9, [sp, #12]
 80025f2:	4bab      	ldr	r3, [pc, #684]	; (80028a0 <_dtoa_r+0x308>)
 80025f4:	ea33 0309 	bics.w	r3, r3, r9
 80025f8:	d11b      	bne.n	8002632 <_dtoa_r+0x9a>
 80025fa:	f242 730f 	movw	r3, #9999	; 0x270f
 80025fe:	9a20      	ldr	r2, [sp, #128]	; 0x80
 8002600:	6013      	str	r3, [r2, #0]
 8002602:	9b02      	ldr	r3, [sp, #8]
 8002604:	b923      	cbnz	r3, 8002610 <_dtoa_r+0x78>
 8002606:	f3c9 0013 	ubfx	r0, r9, #0, #20
 800260a:	2800      	cmp	r0, #0
 800260c:	f000 8583 	beq.w	8003116 <_dtoa_r+0xb7e>
 8002610:	9b22      	ldr	r3, [sp, #136]	; 0x88
 8002612:	b953      	cbnz	r3, 800262a <_dtoa_r+0x92>
 8002614:	4ba3      	ldr	r3, [pc, #652]	; (80028a4 <_dtoa_r+0x30c>)
 8002616:	e021      	b.n	800265c <_dtoa_r+0xc4>
 8002618:	4ba3      	ldr	r3, [pc, #652]	; (80028a8 <_dtoa_r+0x310>)
 800261a:	9306      	str	r3, [sp, #24]
 800261c:	3308      	adds	r3, #8
 800261e:	9a22      	ldr	r2, [sp, #136]	; 0x88
 8002620:	6013      	str	r3, [r2, #0]
 8002622:	9806      	ldr	r0, [sp, #24]
 8002624:	b015      	add	sp, #84	; 0x54
 8002626:	e8bd 8ff0 	ldmia.w	sp!, {r4, r5, r6, r7, r8, r9, sl, fp, pc}
 800262a:	4b9e      	ldr	r3, [pc, #632]	; (80028a4 <_dtoa_r+0x30c>)
 800262c:	9306      	str	r3, [sp, #24]
 800262e:	3303      	adds	r3, #3
 8002630:	e7f5      	b.n	800261e <_dtoa_r+0x86>
 8002632:	e9dd 6702 	ldrd	r6, r7, [sp, #8]
 8002636:	2200      	movs	r2, #0
 8002638:	2300      	movs	r3, #0
 800263a:	4630      	mov	r0, r6
 800263c:	4639      	mov	r1, r7
 800263e:	f7fe f9af 	bl	80009a0 <__aeabi_dcmpeq>
 8002642:	4680      	mov	r8, r0
 8002644:	b160      	cbz	r0, 8002660 <_dtoa_r+0xc8>
 8002646:	2301      	movs	r3, #1
 8002648:	9a20      	ldr	r2, [sp, #128]	; 0x80
 800264a:	6013      	str	r3, [r2, #0]
 800264c:	9b22      	ldr	r3, [sp, #136]	; 0x88
 800264e:	2b00      	cmp	r3, #0
 8002650:	f000 855e 	beq.w	8003110 <_dtoa_r+0xb78>
 8002654:	4b95      	ldr	r3, [pc, #596]	; (80028ac <_dtoa_r+0x314>)
 8002656:	9a22      	ldr	r2, [sp, #136]	; 0x88
 8002658:	6013      	str	r3, [r2, #0]
 800265a:	3b01      	subs	r3, #1
 800265c:	9306      	str	r3, [sp, #24]
 800265e:	e7e0      	b.n	8002622 <_dtoa_r+0x8a>
 8002660:	ab12      	add	r3, sp, #72	; 0x48
 8002662:	9301      	str	r3, [sp, #4]
 8002664:	ab13      	add	r3, sp, #76	; 0x4c
 8002666:	9300      	str	r3, [sp, #0]
 8002668:	4632      	mov	r2, r6
 800266a:	463b      	mov	r3, r7
 800266c:	4620      	mov	r0, r4
 800266e:	f001 f817 	bl	80036a0 <__d2b>
 8002672:	f3c9 550a 	ubfx	r5, r9, #20, #11
 8002676:	4682      	mov	sl, r0
 8002678:	2d00      	cmp	r5, #0
 800267a:	d07d      	beq.n	8002778 <_dtoa_r+0x1e0>
 800267c:	4630      	mov	r0, r6
 800267e:	f3c7 0313 	ubfx	r3, r7, #0, #20
 8002682:	f043 517f 	orr.w	r1, r3, #1069547520	; 0x3fc00000
 8002686:	f441 1140 	orr.w	r1, r1, #3145728	; 0x300000
 800268a:	f2a5 35ff 	subw	r5, r5, #1023	; 0x3ff
 800268e:	f8cd 8040 	str.w	r8, [sp, #64]	; 0x40
 8002692:	2200      	movs	r2, #0
 8002694:	4b86      	ldr	r3, [pc, #536]	; (80028b0 <_dtoa_r+0x318>)
 8002696:	f7fd fd67 	bl	8000168 <__aeabi_dsub>
 800269a:	a37b      	add	r3, pc, #492	; (adr r3, 8002888 <_dtoa_r+0x2f0>)
 800269c:	e9d3 2300 	ldrd	r2, r3, [r3]
 80026a0:	f7fd ff16 	bl	80004d0 <__aeabi_dmul>
 80026a4:	a37a      	add	r3, pc, #488	; (adr r3, 8002890 <_dtoa_r+0x2f8>)
 80026a6:	e9d3 2300 	ldrd	r2, r3, [r3]
 80026aa:	f7fd fd5f 	bl	800016c <__adddf3>
 80026ae:	4606      	mov	r6, r0
 80026b0:	4628      	mov	r0, r5
 80026b2:	460f      	mov	r7, r1
 80026b4:	f7fd fea6 	bl	8000404 <__aeabi_i2d>
 80026b8:	a377      	add	r3, pc, #476	; (adr r3, 8002898 <_dtoa_r+0x300>)
 80026ba:	e9d3 2300 	ldrd	r2, r3, [r3]
 80026be:	f7fd ff07 	bl	80004d0 <__aeabi_dmul>
 80026c2:	4602      	mov	r2, r0
 80026c4:	460b      	mov	r3, r1
 80026c6:	4630      	mov	r0, r6
 80026c8:	4639      	mov	r1, r7
 80026ca:	f7fd fd4f 	bl	800016c <__adddf3>
 80026ce:	4606      	mov	r6, r0
 80026d0:	460f      	mov	r7, r1
 80026d2:	f7fe f9ad 	bl	8000a30 <__aeabi_d2iz>
 80026d6:	2200      	movs	r2, #0
 80026d8:	4683      	mov	fp, r0
 80026da:	2300      	movs	r3, #0
 80026dc:	4630      	mov	r0, r6
 80026de:	4639      	mov	r1, r7
 80026e0:	f7fe f968 	bl	80009b4 <__aeabi_dcmplt>
 80026e4:	b158      	cbz	r0, 80026fe <_dtoa_r+0x166>
 80026e6:	4658      	mov	r0, fp
 80026e8:	f7fd fe8c 	bl	8000404 <__aeabi_i2d>
 80026ec:	4602      	mov	r2, r0
 80026ee:	460b      	mov	r3, r1
 80026f0:	4630      	mov	r0, r6
 80026f2:	4639      	mov	r1, r7
 80026f4:	f7fe f954 	bl	80009a0 <__aeabi_dcmpeq>
 80026f8:	b908      	cbnz	r0, 80026fe <_dtoa_r+0x166>
 80026fa:	f10b 3bff 	add.w	fp, fp, #4294967295	; 0xffffffff
 80026fe:	f1bb 0f16 	cmp.w	fp, #22
 8002702:	d858      	bhi.n	80027b6 <_dtoa_r+0x21e>
 8002704:	e9dd 2302 	ldrd	r2, r3, [sp, #8]
 8002708:	496a      	ldr	r1, [pc, #424]	; (80028b4 <_dtoa_r+0x31c>)
 800270a:	eb01 01cb 	add.w	r1, r1, fp, lsl #3
 800270e:	e9d1 0100 	ldrd	r0, r1, [r1]
 8002712:	f7fe f96d 	bl	80009f0 <__aeabi_dcmpgt>
 8002716:	2800      	cmp	r0, #0
 8002718:	d04f      	beq.n	80027ba <_dtoa_r+0x222>
 800271a:	2300      	movs	r3, #0
 800271c:	f10b 3bff 	add.w	fp, fp, #4294967295	; 0xffffffff
 8002720:	930d      	str	r3, [sp, #52]	; 0x34
 8002722:	9b12      	ldr	r3, [sp, #72]	; 0x48
 8002724:	1b5d      	subs	r5, r3, r5
 8002726:	1e6b      	subs	r3, r5, #1
 8002728:	9307      	str	r3, [sp, #28]
 800272a:	bf43      	ittte	mi
 800272c:	2300      	movmi	r3, #0
 800272e:	f1c5 0801 	rsbmi	r8, r5, #1
 8002732:	9307      	strmi	r3, [sp, #28]
 8002734:	f04f 0800 	movpl.w	r8, #0
 8002738:	f1bb 0f00 	cmp.w	fp, #0
 800273c:	db3f      	blt.n	80027be <_dtoa_r+0x226>
 800273e:	9b07      	ldr	r3, [sp, #28]
 8002740:	f8cd b030 	str.w	fp, [sp, #48]	; 0x30
 8002744:	445b      	add	r3, fp
 8002746:	9307      	str	r3, [sp, #28]
 8002748:	2300      	movs	r3, #0
 800274a:	9308      	str	r3, [sp, #32]
 800274c:	9b1e      	ldr	r3, [sp, #120]	; 0x78
 800274e:	2b09      	cmp	r3, #9
 8002750:	f200 80b4 	bhi.w	80028bc <_dtoa_r+0x324>
 8002754:	2b05      	cmp	r3, #5
 8002756:	bfc4      	itt	gt
 8002758:	3b04      	subgt	r3, #4
 800275a:	931e      	strgt	r3, [sp, #120]	; 0x78
 800275c:	9b1e      	ldr	r3, [sp, #120]	; 0x78
 800275e:	bfc8      	it	gt
 8002760:	2600      	movgt	r6, #0
 8002762:	f1a3 0302 	sub.w	r3, r3, #2
 8002766:	bfd8      	it	le
 8002768:	2601      	movle	r6, #1
 800276a:	2b03      	cmp	r3, #3
 800276c:	f200 80b2 	bhi.w	80028d4 <_dtoa_r+0x33c>
 8002770:	e8df f003 	tbb	[pc, r3]
 8002774:	782d8684 	.word	0x782d8684
 8002778:	9b13      	ldr	r3, [sp, #76]	; 0x4c
 800277a:	9d12      	ldr	r5, [sp, #72]	; 0x48
 800277c:	441d      	add	r5, r3
 800277e:	f205 4332 	addw	r3, r5, #1074	; 0x432
 8002782:	2b20      	cmp	r3, #32
 8002784:	dd11      	ble.n	80027aa <_dtoa_r+0x212>
 8002786:	9a02      	ldr	r2, [sp, #8]
 8002788:	f205 4012 	addw	r0, r5, #1042	; 0x412
 800278c:	f1c3 0340 	rsb	r3, r3, #64	; 0x40
 8002790:	fa22 f000 	lsr.w	r0, r2, r0
 8002794:	fa09 f303 	lsl.w	r3, r9, r3
 8002798:	4318      	orrs	r0, r3
 800279a:	f7fd fe23 	bl	80003e4 <__aeabi_ui2d>
 800279e:	2301      	movs	r3, #1
 80027a0:	f1a1 71f8 	sub.w	r1, r1, #32505856	; 0x1f00000
 80027a4:	3d01      	subs	r5, #1
 80027a6:	9310      	str	r3, [sp, #64]	; 0x40
 80027a8:	e773      	b.n	8002692 <_dtoa_r+0xfa>
 80027aa:	f1c3 0020 	rsb	r0, r3, #32
 80027ae:	9b02      	ldr	r3, [sp, #8]
 80027b0:	fa03 f000 	lsl.w	r0, r3, r0
 80027b4:	e7f1      	b.n	800279a <_dtoa_r+0x202>
 80027b6:	2301      	movs	r3, #1
 80027b8:	e7b2      	b.n	8002720 <_dtoa_r+0x188>
 80027ba:	900d      	str	r0, [sp, #52]	; 0x34
 80027bc:	e7b1      	b.n	8002722 <_dtoa_r+0x18a>
 80027be:	f1cb 0300 	rsb	r3, fp, #0
 80027c2:	9308      	str	r3, [sp, #32]
 80027c4:	2300      	movs	r3, #0
 80027c6:	eba8 080b 	sub.w	r8, r8, fp
 80027ca:	930c      	str	r3, [sp, #48]	; 0x30
 80027cc:	e7be      	b.n	800274c <_dtoa_r+0x1b4>
 80027ce:	2301      	movs	r3, #1
 80027d0:	9309      	str	r3, [sp, #36]	; 0x24
 80027d2:	9b1f      	ldr	r3, [sp, #124]	; 0x7c
 80027d4:	2b00      	cmp	r3, #0
 80027d6:	f340 8080 	ble.w	80028da <_dtoa_r+0x342>
 80027da:	4699      	mov	r9, r3
 80027dc:	9304      	str	r3, [sp, #16]
 80027de:	2200      	movs	r2, #0
 80027e0:	2104      	movs	r1, #4
 80027e2:	6a65      	ldr	r5, [r4, #36]	; 0x24
 80027e4:	606a      	str	r2, [r5, #4]
 80027e6:	f101 0214 	add.w	r2, r1, #20
 80027ea:	429a      	cmp	r2, r3
 80027ec:	d97a      	bls.n	80028e4 <_dtoa_r+0x34c>
 80027ee:	6869      	ldr	r1, [r5, #4]
 80027f0:	4620      	mov	r0, r4
 80027f2:	f000 fcd4 	bl	800319e <_Balloc>
 80027f6:	6a63      	ldr	r3, [r4, #36]	; 0x24
 80027f8:	6028      	str	r0, [r5, #0]
 80027fa:	681b      	ldr	r3, [r3, #0]
 80027fc:	f1b9 0f0e 	cmp.w	r9, #14
 8002800:	9306      	str	r3, [sp, #24]
 8002802:	f200 80f0 	bhi.w	80029e6 <_dtoa_r+0x44e>
 8002806:	2e00      	cmp	r6, #0
 8002808:	f000 80ed 	beq.w	80029e6 <_dtoa_r+0x44e>
 800280c:	e9dd 2302 	ldrd	r2, r3, [sp, #8]
 8002810:	f1bb 0f00 	cmp.w	fp, #0
 8002814:	e9cd 230e 	strd	r2, r3, [sp, #56]	; 0x38
 8002818:	dd79      	ble.n	800290e <_dtoa_r+0x376>
 800281a:	4a26      	ldr	r2, [pc, #152]	; (80028b4 <_dtoa_r+0x31c>)
 800281c:	f00b 030f 	and.w	r3, fp, #15
 8002820:	ea4f 162b 	mov.w	r6, fp, asr #4
 8002824:	eb02 03c3 	add.w	r3, r2, r3, lsl #3
 8002828:	06f0      	lsls	r0, r6, #27
 800282a:	e9d3 2300 	ldrd	r2, r3, [r3]
 800282e:	e9cd 230a 	strd	r2, r3, [sp, #40]	; 0x28
 8002832:	d55c      	bpl.n	80028ee <_dtoa_r+0x356>
 8002834:	e9dd 010e 	ldrd	r0, r1, [sp, #56]	; 0x38
 8002838:	4b1f      	ldr	r3, [pc, #124]	; (80028b8 <_dtoa_r+0x320>)
 800283a:	2503      	movs	r5, #3
 800283c:	e9d3 2308 	ldrd	r2, r3, [r3, #32]
 8002840:	f7fd ff70 	bl	8000724 <__aeabi_ddiv>
 8002844:	e9cd 0102 	strd	r0, r1, [sp, #8]
 8002848:	f006 060f 	and.w	r6, r6, #15
 800284c:	4f1a      	ldr	r7, [pc, #104]	; (80028b8 <_dtoa_r+0x320>)
 800284e:	2e00      	cmp	r6, #0
 8002850:	d14f      	bne.n	80028f2 <_dtoa_r+0x35a>
 8002852:	e9dd 230a 	ldrd	r2, r3, [sp, #40]	; 0x28
 8002856:	e9dd 0102 	ldrd	r0, r1, [sp, #8]
 800285a:	f7fd ff63 	bl	8000724 <__aeabi_ddiv>
 800285e:	e9cd 0102 	strd	r0, r1, [sp, #8]
 8002862:	e06e      	b.n	8002942 <_dtoa_r+0x3aa>
 8002864:	2301      	movs	r3, #1
 8002866:	9309      	str	r3, [sp, #36]	; 0x24
 8002868:	9b1f      	ldr	r3, [sp, #124]	; 0x7c
 800286a:	445b      	add	r3, fp
 800286c:	f103 0901 	add.w	r9, r3, #1
 8002870:	9304      	str	r3, [sp, #16]
 8002872:	464b      	mov	r3, r9
 8002874:	2b01      	cmp	r3, #1
 8002876:	bfb8      	it	lt
 8002878:	2301      	movlt	r3, #1
 800287a:	e7b0      	b.n	80027de <_dtoa_r+0x246>
 800287c:	2300      	movs	r3, #0
 800287e:	e7a7      	b.n	80027d0 <_dtoa_r+0x238>
 8002880:	2300      	movs	r3, #0
 8002882:	e7f0      	b.n	8002866 <_dtoa_r+0x2ce>
 8002884:	f3af 8000 	nop.w
 8002888:	636f4361 	.word	0x636f4361
 800288c:	3fd287a7 	.word	0x3fd287a7
 8002890:	8b60c8b3 	.word	0x8b60c8b3
 8002894:	3fc68a28 	.word	0x3fc68a28
 8002898:	509f79fb 	.word	0x509f79fb
 800289c:	3fd34413 	.word	0x3fd34413
 80028a0:	7ff00000 	.word	0x7ff00000
 80028a4:	08003cfd 	.word	0x08003cfd
 80028a8:	08003cf4 	.word	0x08003cf4
 80028ac:	08003cd1 	.word	0x08003cd1
 80028b0:	3ff80000 	.word	0x3ff80000
 80028b4:	08003d30 	.word	0x08003d30
 80028b8:	08003d08 	.word	0x08003d08
 80028bc:	2601      	movs	r6, #1
 80028be:	2300      	movs	r3, #0
 80028c0:	9609      	str	r6, [sp, #36]	; 0x24
 80028c2:	931e      	str	r3, [sp, #120]	; 0x78
 80028c4:	f04f 33ff 	mov.w	r3, #4294967295	; 0xffffffff
 80028c8:	2200      	movs	r2, #0
 80028ca:	9304      	str	r3, [sp, #16]
 80028cc:	4699      	mov	r9, r3
 80028ce:	2312      	movs	r3, #18
 80028d0:	921f      	str	r2, [sp, #124]	; 0x7c
 80028d2:	e784      	b.n	80027de <_dtoa_r+0x246>
 80028d4:	2301      	movs	r3, #1
 80028d6:	9309      	str	r3, [sp, #36]	; 0x24
 80028d8:	e7f4      	b.n	80028c4 <_dtoa_r+0x32c>
 80028da:	2301      	movs	r3, #1
 80028dc:	9304      	str	r3, [sp, #16]
 80028de:	4699      	mov	r9, r3
 80028e0:	461a      	mov	r2, r3
 80028e2:	e7f5      	b.n	80028d0 <_dtoa_r+0x338>
 80028e4:	686a      	ldr	r2, [r5, #4]
 80028e6:	0049      	lsls	r1, r1, #1
 80028e8:	3201      	adds	r2, #1
 80028ea:	606a      	str	r2, [r5, #4]
 80028ec:	e77b      	b.n	80027e6 <_dtoa_r+0x24e>
 80028ee:	2502      	movs	r5, #2
 80028f0:	e7ac      	b.n	800284c <_dtoa_r+0x2b4>
 80028f2:	07f1      	lsls	r1, r6, #31
 80028f4:	d508      	bpl.n	8002908 <_dtoa_r+0x370>
 80028f6:	e9dd 010a 	ldrd	r0, r1, [sp, #40]	; 0x28
 80028fa:	e9d7 2300 	ldrd	r2, r3, [r7]
 80028fe:	f7fd fde7 	bl	80004d0 <__aeabi_dmul>
 8002902:	e9cd 010a 	strd	r0, r1, [sp, #40]	; 0x28
 8002906:	3501      	adds	r5, #1
 8002908:	1076      	asrs	r6, r6, #1
 800290a:	3708      	adds	r7, #8
 800290c:	e79f      	b.n	800284e <_dtoa_r+0x2b6>
 800290e:	f000 80a5 	beq.w	8002a5c <_dtoa_r+0x4c4>
 8002912:	e9dd 010e 	ldrd	r0, r1, [sp, #56]	; 0x38
 8002916:	f1cb 0600 	rsb	r6, fp, #0
 800291a:	4ba2      	ldr	r3, [pc, #648]	; (8002ba4 <_dtoa_r+0x60c>)
 800291c:	f006 020f 	and.w	r2, r6, #15
 8002920:	eb03 03c2 	add.w	r3, r3, r2, lsl #3
 8002924:	e9d3 2300 	ldrd	r2, r3, [r3]
 8002928:	f7fd fdd2 	bl	80004d0 <__aeabi_dmul>
 800292c:	2502      	movs	r5, #2
 800292e:	2300      	movs	r3, #0
 8002930:	e9cd 0102 	strd	r0, r1, [sp, #8]
 8002934:	4f9c      	ldr	r7, [pc, #624]	; (8002ba8 <_dtoa_r+0x610>)
 8002936:	1136      	asrs	r6, r6, #4
 8002938:	2e00      	cmp	r6, #0
 800293a:	f040 8084 	bne.w	8002a46 <_dtoa_r+0x4ae>
 800293e:	2b00      	cmp	r3, #0
 8002940:	d18d      	bne.n	800285e <_dtoa_r+0x2c6>
 8002942:	9b0d      	ldr	r3, [sp, #52]	; 0x34
 8002944:	2b00      	cmp	r3, #0
 8002946:	f000 808b 	beq.w	8002a60 <_dtoa_r+0x4c8>
 800294a:	e9dd 2302 	ldrd	r2, r3, [sp, #8]
 800294e:	e9cd 230a 	strd	r2, r3, [sp, #40]	; 0x28
 8002952:	e9dd 010a 	ldrd	r0, r1, [sp, #40]	; 0x28
 8002956:	2200      	movs	r2, #0
 8002958:	4b94      	ldr	r3, [pc, #592]	; (8002bac <_dtoa_r+0x614>)
 800295a:	f7fe f82b 	bl	80009b4 <__aeabi_dcmplt>
 800295e:	2800      	cmp	r0, #0
 8002960:	d07e      	beq.n	8002a60 <_dtoa_r+0x4c8>
 8002962:	f1b9 0f00 	cmp.w	r9, #0
 8002966:	d07b      	beq.n	8002a60 <_dtoa_r+0x4c8>
 8002968:	9b04      	ldr	r3, [sp, #16]
 800296a:	2b00      	cmp	r3, #0
 800296c:	dd37      	ble.n	80029de <_dtoa_r+0x446>
 800296e:	e9dd 010a 	ldrd	r0, r1, [sp, #40]	; 0x28
 8002972:	2200      	movs	r2, #0
 8002974:	4b8e      	ldr	r3, [pc, #568]	; (8002bb0 <_dtoa_r+0x618>)
 8002976:	f7fd fdab 	bl	80004d0 <__aeabi_dmul>
 800297a:	e9cd 0102 	strd	r0, r1, [sp, #8]
 800297e:	9e04      	ldr	r6, [sp, #16]
 8002980:	f10b 37ff 	add.w	r7, fp, #4294967295	; 0xffffffff
 8002984:	3501      	adds	r5, #1
 8002986:	4628      	mov	r0, r5
 8002988:	f7fd fd3c 	bl	8000404 <__aeabi_i2d>
 800298c:	e9dd 2302 	ldrd	r2, r3, [sp, #8]
 8002990:	f7fd fd9e 	bl	80004d0 <__aeabi_dmul>
 8002994:	4b87      	ldr	r3, [pc, #540]	; (8002bb4 <_dtoa_r+0x61c>)
 8002996:	2200      	movs	r2, #0
 8002998:	f7fd fbe8 	bl	800016c <__adddf3>
 800299c:	e9cd 010a 	strd	r0, r1, [sp, #40]	; 0x28
 80029a0:	9b0b      	ldr	r3, [sp, #44]	; 0x2c
 80029a2:	f1a3 7550 	sub.w	r5, r3, #54525952	; 0x3400000
 80029a6:	950b      	str	r5, [sp, #44]	; 0x2c
 80029a8:	2e00      	cmp	r6, #0
 80029aa:	d15c      	bne.n	8002a66 <_dtoa_r+0x4ce>
 80029ac:	e9dd 0102 	ldrd	r0, r1, [sp, #8]
 80029b0:	2200      	movs	r2, #0
 80029b2:	4b81      	ldr	r3, [pc, #516]	; (8002bb8 <_dtoa_r+0x620>)
 80029b4:	f7fd fbd8 	bl	8000168 <__aeabi_dsub>
 80029b8:	9a0a      	ldr	r2, [sp, #40]	; 0x28
 80029ba:	462b      	mov	r3, r5
 80029bc:	e9cd 0102 	strd	r0, r1, [sp, #8]
 80029c0:	f7fe f816 	bl	80009f0 <__aeabi_dcmpgt>
 80029c4:	2800      	cmp	r0, #0
 80029c6:	f040 82f7 	bne.w	8002fb8 <_dtoa_r+0xa20>
 80029ca:	e9dd 0102 	ldrd	r0, r1, [sp, #8]
 80029ce:	9a0a      	ldr	r2, [sp, #40]	; 0x28
 80029d0:	f105 4300 	add.w	r3, r5, #2147483648	; 0x80000000
 80029d4:	f7fd ffee 	bl	80009b4 <__aeabi_dcmplt>
 80029d8:	2800      	cmp	r0, #0
 80029da:	f040 82eb 	bne.w	8002fb4 <_dtoa_r+0xa1c>
 80029de:	e9dd 230e 	ldrd	r2, r3, [sp, #56]	; 0x38
 80029e2:	e9cd 2302 	strd	r2, r3, [sp, #8]
 80029e6:	9b13      	ldr	r3, [sp, #76]	; 0x4c
 80029e8:	2b00      	cmp	r3, #0
 80029ea:	f2c0 8150 	blt.w	8002c8e <_dtoa_r+0x6f6>
 80029ee:	f1bb 0f0e 	cmp.w	fp, #14
 80029f2:	f300 814c 	bgt.w	8002c8e <_dtoa_r+0x6f6>
 80029f6:	4b6b      	ldr	r3, [pc, #428]	; (8002ba4 <_dtoa_r+0x60c>)
 80029f8:	eb03 03cb 	add.w	r3, r3, fp, lsl #3
 80029fc:	e9d3 2300 	ldrd	r2, r3, [r3]
 8002a00:	e9cd 2304 	strd	r2, r3, [sp, #16]
 8002a04:	9b1f      	ldr	r3, [sp, #124]	; 0x7c
 8002a06:	2b00      	cmp	r3, #0
 8002a08:	f280 80da 	bge.w	8002bc0 <_dtoa_r+0x628>
 8002a0c:	f1b9 0f00 	cmp.w	r9, #0
 8002a10:	f300 80d6 	bgt.w	8002bc0 <_dtoa_r+0x628>
 8002a14:	f040 82cd 	bne.w	8002fb2 <_dtoa_r+0xa1a>
 8002a18:	e9dd 0104 	ldrd	r0, r1, [sp, #16]
 8002a1c:	2200      	movs	r2, #0
 8002a1e:	4b66      	ldr	r3, [pc, #408]	; (8002bb8 <_dtoa_r+0x620>)
 8002a20:	f7fd fd56 	bl	80004d0 <__aeabi_dmul>
 8002a24:	e9dd 2302 	ldrd	r2, r3, [sp, #8]
 8002a28:	f7fd ffd8 	bl	80009dc <__aeabi_dcmpge>
 8002a2c:	464e      	mov	r6, r9
 8002a2e:	464f      	mov	r7, r9
 8002a30:	2800      	cmp	r0, #0
 8002a32:	f040 82a4 	bne.w	8002f7e <_dtoa_r+0x9e6>
 8002a36:	9b06      	ldr	r3, [sp, #24]
 8002a38:	9a06      	ldr	r2, [sp, #24]
 8002a3a:	1c5d      	adds	r5, r3, #1
 8002a3c:	2331      	movs	r3, #49	; 0x31
 8002a3e:	f10b 0b01 	add.w	fp, fp, #1
 8002a42:	7013      	strb	r3, [r2, #0]
 8002a44:	e29f      	b.n	8002f86 <_dtoa_r+0x9ee>
 8002a46:	07f2      	lsls	r2, r6, #31
 8002a48:	d505      	bpl.n	8002a56 <_dtoa_r+0x4be>
 8002a4a:	e9d7 2300 	ldrd	r2, r3, [r7]
 8002a4e:	f7fd fd3f 	bl	80004d0 <__aeabi_dmul>
 8002a52:	2301      	movs	r3, #1
 8002a54:	3501      	adds	r5, #1
 8002a56:	1076      	asrs	r6, r6, #1
 8002a58:	3708      	adds	r7, #8
 8002a5a:	e76d      	b.n	8002938 <_dtoa_r+0x3a0>
 8002a5c:	2502      	movs	r5, #2
 8002a5e:	e770      	b.n	8002942 <_dtoa_r+0x3aa>
 8002a60:	465f      	mov	r7, fp
 8002a62:	464e      	mov	r6, r9
 8002a64:	e78f      	b.n	8002986 <_dtoa_r+0x3ee>
 8002a66:	9a06      	ldr	r2, [sp, #24]
 8002a68:	4b4e      	ldr	r3, [pc, #312]	; (8002ba4 <_dtoa_r+0x60c>)
 8002a6a:	4432      	add	r2, r6
 8002a6c:	9211      	str	r2, [sp, #68]	; 0x44
 8002a6e:	9a09      	ldr	r2, [sp, #36]	; 0x24
 8002a70:	1e71      	subs	r1, r6, #1
 8002a72:	2a00      	cmp	r2, #0
 8002a74:	d048      	beq.n	8002b08 <_dtoa_r+0x570>
 8002a76:	eb03 03c1 	add.w	r3, r3, r1, lsl #3
 8002a7a:	e9d3 2300 	ldrd	r2, r3, [r3]
 8002a7e:	2000      	movs	r0, #0
 8002a80:	494e      	ldr	r1, [pc, #312]	; (8002bbc <_dtoa_r+0x624>)
 8002a82:	f7fd fe4f 	bl	8000724 <__aeabi_ddiv>
 8002a86:	e9dd 230a 	ldrd	r2, r3, [sp, #40]	; 0x28
 8002a8a:	f7fd fb6d 	bl	8000168 <__aeabi_dsub>
 8002a8e:	e9cd 010a 	strd	r0, r1, [sp, #40]	; 0x28
 8002a92:	9d06      	ldr	r5, [sp, #24]
 8002a94:	e9dd 0102 	ldrd	r0, r1, [sp, #8]
 8002a98:	f7fd ffca 	bl	8000a30 <__aeabi_d2iz>
 8002a9c:	4606      	mov	r6, r0
 8002a9e:	f7fd fcb1 	bl	8000404 <__aeabi_i2d>
 8002aa2:	4602      	mov	r2, r0
 8002aa4:	460b      	mov	r3, r1
 8002aa6:	e9dd 0102 	ldrd	r0, r1, [sp, #8]
 8002aaa:	f7fd fb5d 	bl	8000168 <__aeabi_dsub>
 8002aae:	e9dd 230a 	ldrd	r2, r3, [sp, #40]	; 0x28
 8002ab2:	3630      	adds	r6, #48	; 0x30
 8002ab4:	f805 6b01 	strb.w	r6, [r5], #1
 8002ab8:	e9cd 0102 	strd	r0, r1, [sp, #8]
 8002abc:	f7fd ff7a 	bl	80009b4 <__aeabi_dcmplt>
 8002ac0:	2800      	cmp	r0, #0
 8002ac2:	d164      	bne.n	8002b8e <_dtoa_r+0x5f6>
 8002ac4:	e9dd 2302 	ldrd	r2, r3, [sp, #8]
 8002ac8:	2000      	movs	r0, #0
 8002aca:	4938      	ldr	r1, [pc, #224]	; (8002bac <_dtoa_r+0x614>)
 8002acc:	f7fd fb4c 	bl	8000168 <__aeabi_dsub>
 8002ad0:	e9dd 230a 	ldrd	r2, r3, [sp, #40]	; 0x28
 8002ad4:	f7fd ff6e 	bl	80009b4 <__aeabi_dcmplt>
 8002ad8:	2800      	cmp	r0, #0
 8002ada:	f040 80b9 	bne.w	8002c50 <_dtoa_r+0x6b8>
 8002ade:	9b11      	ldr	r3, [sp, #68]	; 0x44
 8002ae0:	429d      	cmp	r5, r3
 8002ae2:	f43f af7c 	beq.w	80029de <_dtoa_r+0x446>
 8002ae6:	e9dd 010a 	ldrd	r0, r1, [sp, #40]	; 0x28
 8002aea:	2200      	movs	r2, #0
 8002aec:	4b30      	ldr	r3, [pc, #192]	; (8002bb0 <_dtoa_r+0x618>)
 8002aee:	f7fd fcef 	bl	80004d0 <__aeabi_dmul>
 8002af2:	2200      	movs	r2, #0
 8002af4:	e9cd 010a 	strd	r0, r1, [sp, #40]	; 0x28
 8002af8:	e9dd 0102 	ldrd	r0, r1, [sp, #8]
 8002afc:	4b2c      	ldr	r3, [pc, #176]	; (8002bb0 <_dtoa_r+0x618>)
 8002afe:	f7fd fce7 	bl	80004d0 <__aeabi_dmul>
 8002b02:	e9cd 0102 	strd	r0, r1, [sp, #8]
 8002b06:	e7c5      	b.n	8002a94 <_dtoa_r+0x4fc>
 8002b08:	eb03 01c1 	add.w	r1, r3, r1, lsl #3
 8002b0c:	e9d1 0100 	ldrd	r0, r1, [r1]
 8002b10:	e9dd 230a 	ldrd	r2, r3, [sp, #40]	; 0x28
 8002b14:	f7fd fcdc 	bl	80004d0 <__aeabi_dmul>
 8002b18:	e9cd 010a 	strd	r0, r1, [sp, #40]	; 0x28
 8002b1c:	9d06      	ldr	r5, [sp, #24]
 8002b1e:	e9dd 0102 	ldrd	r0, r1, [sp, #8]
 8002b22:	f7fd ff85 	bl	8000a30 <__aeabi_d2iz>
 8002b26:	4606      	mov	r6, r0
 8002b28:	f7fd fc6c 	bl	8000404 <__aeabi_i2d>
 8002b2c:	4602      	mov	r2, r0
 8002b2e:	460b      	mov	r3, r1
 8002b30:	e9dd 0102 	ldrd	r0, r1, [sp, #8]
 8002b34:	f7fd fb18 	bl	8000168 <__aeabi_dsub>
 8002b38:	3630      	adds	r6, #48	; 0x30
 8002b3a:	9b11      	ldr	r3, [sp, #68]	; 0x44
 8002b3c:	f805 6b01 	strb.w	r6, [r5], #1
 8002b40:	42ab      	cmp	r3, r5
 8002b42:	e9cd 0102 	strd	r0, r1, [sp, #8]
 8002b46:	f04f 0200 	mov.w	r2, #0
 8002b4a:	d124      	bne.n	8002b96 <_dtoa_r+0x5fe>
 8002b4c:	4b1b      	ldr	r3, [pc, #108]	; (8002bbc <_dtoa_r+0x624>)
 8002b4e:	e9dd 010a 	ldrd	r0, r1, [sp, #40]	; 0x28
 8002b52:	f7fd fb0b 	bl	800016c <__adddf3>
 8002b56:	4602      	mov	r2, r0
 8002b58:	460b      	mov	r3, r1
 8002b5a:	e9dd 0102 	ldrd	r0, r1, [sp, #8]
 8002b5e:	f7fd ff47 	bl	80009f0 <__aeabi_dcmpgt>
 8002b62:	2800      	cmp	r0, #0
 8002b64:	d174      	bne.n	8002c50 <_dtoa_r+0x6b8>
 8002b66:	e9dd 230a 	ldrd	r2, r3, [sp, #40]	; 0x28
 8002b6a:	2000      	movs	r0, #0
 8002b6c:	4913      	ldr	r1, [pc, #76]	; (8002bbc <_dtoa_r+0x624>)
 8002b6e:	f7fd fafb 	bl	8000168 <__aeabi_dsub>
 8002b72:	4602      	mov	r2, r0
 8002b74:	460b      	mov	r3, r1
 8002b76:	e9dd 0102 	ldrd	r0, r1, [sp, #8]
 8002b7a:	f7fd ff1b 	bl	80009b4 <__aeabi_dcmplt>
 8002b7e:	2800      	cmp	r0, #0
 8002b80:	f43f af2d 	beq.w	80029de <_dtoa_r+0x446>
 8002b84:	f815 3c01 	ldrb.w	r3, [r5, #-1]
 8002b88:	1e6a      	subs	r2, r5, #1
 8002b8a:	2b30      	cmp	r3, #48	; 0x30
 8002b8c:	d001      	beq.n	8002b92 <_dtoa_r+0x5fa>
 8002b8e:	46bb      	mov	fp, r7
 8002b90:	e04d      	b.n	8002c2e <_dtoa_r+0x696>
 8002b92:	4615      	mov	r5, r2
 8002b94:	e7f6      	b.n	8002b84 <_dtoa_r+0x5ec>
 8002b96:	4b06      	ldr	r3, [pc, #24]	; (8002bb0 <_dtoa_r+0x618>)
 8002b98:	f7fd fc9a 	bl	80004d0 <__aeabi_dmul>
 8002b9c:	e9cd 0102 	strd	r0, r1, [sp, #8]
 8002ba0:	e7bd      	b.n	8002b1e <_dtoa_r+0x586>
 8002ba2:	bf00      	nop
 8002ba4:	08003d30 	.word	0x08003d30
 8002ba8:	08003d08 	.word	0x08003d08
 8002bac:	3ff00000 	.word	0x3ff00000
 8002bb0:	40240000 	.word	0x40240000
 8002bb4:	401c0000 	.word	0x401c0000
 8002bb8:	40140000 	.word	0x40140000
 8002bbc:	3fe00000 	.word	0x3fe00000
 8002bc0:	9d06      	ldr	r5, [sp, #24]
 8002bc2:	e9dd 6702 	ldrd	r6, r7, [sp, #8]
 8002bc6:	e9dd 2304 	ldrd	r2, r3, [sp, #16]
 8002bca:	4630      	mov	r0, r6
 8002bcc:	4639      	mov	r1, r7
 8002bce:	f7fd fda9 	bl	8000724 <__aeabi_ddiv>
 8002bd2:	f7fd ff2d 	bl	8000a30 <__aeabi_d2iz>
 8002bd6:	4680      	mov	r8, r0
 8002bd8:	f7fd fc14 	bl	8000404 <__aeabi_i2d>
 8002bdc:	e9dd 2304 	ldrd	r2, r3, [sp, #16]
 8002be0:	f7fd fc76 	bl	80004d0 <__aeabi_dmul>
 8002be4:	4602      	mov	r2, r0
 8002be6:	460b      	mov	r3, r1
 8002be8:	4630      	mov	r0, r6
 8002bea:	4639      	mov	r1, r7
 8002bec:	f7fd fabc 	bl	8000168 <__aeabi_dsub>
 8002bf0:	f108 0630 	add.w	r6, r8, #48	; 0x30
 8002bf4:	f805 6b01 	strb.w	r6, [r5], #1
 8002bf8:	9e06      	ldr	r6, [sp, #24]
 8002bfa:	4602      	mov	r2, r0
 8002bfc:	1bae      	subs	r6, r5, r6
 8002bfe:	45b1      	cmp	r9, r6
 8002c00:	460b      	mov	r3, r1
 8002c02:	d137      	bne.n	8002c74 <_dtoa_r+0x6dc>
 8002c04:	f7fd fab2 	bl	800016c <__adddf3>
 8002c08:	4606      	mov	r6, r0
 8002c0a:	460f      	mov	r7, r1
 8002c0c:	4602      	mov	r2, r0
 8002c0e:	460b      	mov	r3, r1
 8002c10:	e9dd 0104 	ldrd	r0, r1, [sp, #16]
 8002c14:	f7fd fece 	bl	80009b4 <__aeabi_dcmplt>
 8002c18:	b9c8      	cbnz	r0, 8002c4e <_dtoa_r+0x6b6>
 8002c1a:	e9dd 0104 	ldrd	r0, r1, [sp, #16]
 8002c1e:	4632      	mov	r2, r6
 8002c20:	463b      	mov	r3, r7
 8002c22:	f7fd febd 	bl	80009a0 <__aeabi_dcmpeq>
 8002c26:	b110      	cbz	r0, 8002c2e <_dtoa_r+0x696>
 8002c28:	f018 0f01 	tst.w	r8, #1
 8002c2c:	d10f      	bne.n	8002c4e <_dtoa_r+0x6b6>
 8002c2e:	4651      	mov	r1, sl
 8002c30:	4620      	mov	r0, r4
 8002c32:	f000 fae8 	bl	8003206 <_Bfree>
 8002c36:	2300      	movs	r3, #0
 8002c38:	9a20      	ldr	r2, [sp, #128]	; 0x80
 8002c3a:	702b      	strb	r3, [r5, #0]
 8002c3c:	f10b 0301 	add.w	r3, fp, #1
 8002c40:	6013      	str	r3, [r2, #0]
 8002c42:	9b22      	ldr	r3, [sp, #136]	; 0x88
 8002c44:	2b00      	cmp	r3, #0
 8002c46:	f43f acec 	beq.w	8002622 <_dtoa_r+0x8a>
 8002c4a:	601d      	str	r5, [r3, #0]
 8002c4c:	e4e9      	b.n	8002622 <_dtoa_r+0x8a>
 8002c4e:	465f      	mov	r7, fp
 8002c50:	f815 2c01 	ldrb.w	r2, [r5, #-1]
 8002c54:	1e6b      	subs	r3, r5, #1
 8002c56:	2a39      	cmp	r2, #57	; 0x39
 8002c58:	d106      	bne.n	8002c68 <_dtoa_r+0x6d0>
 8002c5a:	9a06      	ldr	r2, [sp, #24]
 8002c5c:	429a      	cmp	r2, r3
 8002c5e:	d107      	bne.n	8002c70 <_dtoa_r+0x6d8>
 8002c60:	2330      	movs	r3, #48	; 0x30
 8002c62:	7013      	strb	r3, [r2, #0]
 8002c64:	4613      	mov	r3, r2
 8002c66:	3701      	adds	r7, #1
 8002c68:	781a      	ldrb	r2, [r3, #0]
 8002c6a:	3201      	adds	r2, #1
 8002c6c:	701a      	strb	r2, [r3, #0]
 8002c6e:	e78e      	b.n	8002b8e <_dtoa_r+0x5f6>
 8002c70:	461d      	mov	r5, r3
 8002c72:	e7ed      	b.n	8002c50 <_dtoa_r+0x6b8>
 8002c74:	2200      	movs	r2, #0
 8002c76:	4bb5      	ldr	r3, [pc, #724]	; (8002f4c <_dtoa_r+0x9b4>)
 8002c78:	f7fd fc2a 	bl	80004d0 <__aeabi_dmul>
 8002c7c:	2200      	movs	r2, #0
 8002c7e:	2300      	movs	r3, #0
 8002c80:	4606      	mov	r6, r0
 8002c82:	460f      	mov	r7, r1
 8002c84:	f7fd fe8c 	bl	80009a0 <__aeabi_dcmpeq>
 8002c88:	2800      	cmp	r0, #0
 8002c8a:	d09c      	beq.n	8002bc6 <_dtoa_r+0x62e>
 8002c8c:	e7cf      	b.n	8002c2e <_dtoa_r+0x696>
 8002c8e:	9a09      	ldr	r2, [sp, #36]	; 0x24
 8002c90:	2a00      	cmp	r2, #0
 8002c92:	f000 8129 	beq.w	8002ee8 <_dtoa_r+0x950>
 8002c96:	9a1e      	ldr	r2, [sp, #120]	; 0x78
 8002c98:	2a01      	cmp	r2, #1
 8002c9a:	f300 810e 	bgt.w	8002eba <_dtoa_r+0x922>
 8002c9e:	9a10      	ldr	r2, [sp, #64]	; 0x40
 8002ca0:	2a00      	cmp	r2, #0
 8002ca2:	f000 8106 	beq.w	8002eb2 <_dtoa_r+0x91a>
 8002ca6:	f203 4333 	addw	r3, r3, #1075	; 0x433
 8002caa:	4645      	mov	r5, r8
 8002cac:	9e08      	ldr	r6, [sp, #32]
 8002cae:	9a07      	ldr	r2, [sp, #28]
 8002cb0:	2101      	movs	r1, #1
 8002cb2:	441a      	add	r2, r3
 8002cb4:	4620      	mov	r0, r4
 8002cb6:	4498      	add	r8, r3
 8002cb8:	9207      	str	r2, [sp, #28]
 8002cba:	f000 fb44 	bl	8003346 <__i2b>
 8002cbe:	4607      	mov	r7, r0
 8002cc0:	2d00      	cmp	r5, #0
 8002cc2:	dd0b      	ble.n	8002cdc <_dtoa_r+0x744>
 8002cc4:	9b07      	ldr	r3, [sp, #28]
 8002cc6:	2b00      	cmp	r3, #0
 8002cc8:	dd08      	ble.n	8002cdc <_dtoa_r+0x744>
 8002cca:	42ab      	cmp	r3, r5
 8002ccc:	bfa8      	it	ge
 8002cce:	462b      	movge	r3, r5
 8002cd0:	9a07      	ldr	r2, [sp, #28]
 8002cd2:	eba8 0803 	sub.w	r8, r8, r3
 8002cd6:	1aed      	subs	r5, r5, r3
 8002cd8:	1ad3      	subs	r3, r2, r3
 8002cda:	9307      	str	r3, [sp, #28]
 8002cdc:	9b08      	ldr	r3, [sp, #32]
 8002cde:	b1fb      	cbz	r3, 8002d20 <_dtoa_r+0x788>
 8002ce0:	9b09      	ldr	r3, [sp, #36]	; 0x24
 8002ce2:	2b00      	cmp	r3, #0
 8002ce4:	f000 8104 	beq.w	8002ef0 <_dtoa_r+0x958>
 8002ce8:	2e00      	cmp	r6, #0
 8002cea:	dd11      	ble.n	8002d10 <_dtoa_r+0x778>
 8002cec:	4639      	mov	r1, r7
 8002cee:	4632      	mov	r2, r6
 8002cf0:	4620      	mov	r0, r4
 8002cf2:	f000 fbbd 	bl	8003470 <__pow5mult>
 8002cf6:	4652      	mov	r2, sl
 8002cf8:	4601      	mov	r1, r0
 8002cfa:	4607      	mov	r7, r0
 8002cfc:	4620      	mov	r0, r4
 8002cfe:	f000 fb2b 	bl	8003358 <__multiply>
 8002d02:	4651      	mov	r1, sl
 8002d04:	900a      	str	r0, [sp, #40]	; 0x28
 8002d06:	4620      	mov	r0, r4
 8002d08:	f000 fa7d 	bl	8003206 <_Bfree>
 8002d0c:	9b0a      	ldr	r3, [sp, #40]	; 0x28
 8002d0e:	469a      	mov	sl, r3
 8002d10:	9b08      	ldr	r3, [sp, #32]
 8002d12:	1b9a      	subs	r2, r3, r6
 8002d14:	d004      	beq.n	8002d20 <_dtoa_r+0x788>
 8002d16:	4651      	mov	r1, sl
 8002d18:	4620      	mov	r0, r4
 8002d1a:	f000 fba9 	bl	8003470 <__pow5mult>
 8002d1e:	4682      	mov	sl, r0
 8002d20:	2101      	movs	r1, #1
 8002d22:	4620      	mov	r0, r4
 8002d24:	f000 fb0f 	bl	8003346 <__i2b>
 8002d28:	9b0c      	ldr	r3, [sp, #48]	; 0x30
 8002d2a:	4606      	mov	r6, r0
 8002d2c:	2b00      	cmp	r3, #0
 8002d2e:	f340 80e1 	ble.w	8002ef4 <_dtoa_r+0x95c>
 8002d32:	461a      	mov	r2, r3
 8002d34:	4601      	mov	r1, r0
 8002d36:	4620      	mov	r0, r4
 8002d38:	f000 fb9a 	bl	8003470 <__pow5mult>
 8002d3c:	9b1e      	ldr	r3, [sp, #120]	; 0x78
 8002d3e:	4606      	mov	r6, r0
 8002d40:	2b01      	cmp	r3, #1
 8002d42:	f340 80da 	ble.w	8002efa <_dtoa_r+0x962>
 8002d46:	2300      	movs	r3, #0
 8002d48:	9308      	str	r3, [sp, #32]
 8002d4a:	6933      	ldr	r3, [r6, #16]
 8002d4c:	eb06 0383 	add.w	r3, r6, r3, lsl #2
 8002d50:	6918      	ldr	r0, [r3, #16]
 8002d52:	f000 faaa 	bl	80032aa <__hi0bits>
 8002d56:	f1c0 0020 	rsb	r0, r0, #32
 8002d5a:	9b07      	ldr	r3, [sp, #28]
 8002d5c:	4418      	add	r0, r3
 8002d5e:	f010 001f 	ands.w	r0, r0, #31
 8002d62:	f000 80f0 	beq.w	8002f46 <_dtoa_r+0x9ae>
 8002d66:	f1c0 0320 	rsb	r3, r0, #32
 8002d6a:	2b04      	cmp	r3, #4
 8002d6c:	f340 80e2 	ble.w	8002f34 <_dtoa_r+0x99c>
 8002d70:	9b07      	ldr	r3, [sp, #28]
 8002d72:	f1c0 001c 	rsb	r0, r0, #28
 8002d76:	4480      	add	r8, r0
 8002d78:	4405      	add	r5, r0
 8002d7a:	4403      	add	r3, r0
 8002d7c:	9307      	str	r3, [sp, #28]
 8002d7e:	f1b8 0f00 	cmp.w	r8, #0
 8002d82:	dd05      	ble.n	8002d90 <_dtoa_r+0x7f8>
 8002d84:	4651      	mov	r1, sl
 8002d86:	4642      	mov	r2, r8
 8002d88:	4620      	mov	r0, r4
 8002d8a:	f000 fbbf 	bl	800350c <__lshift>
 8002d8e:	4682      	mov	sl, r0
 8002d90:	9b07      	ldr	r3, [sp, #28]
 8002d92:	2b00      	cmp	r3, #0
 8002d94:	dd05      	ble.n	8002da2 <_dtoa_r+0x80a>
 8002d96:	4631      	mov	r1, r6
 8002d98:	461a      	mov	r2, r3
 8002d9a:	4620      	mov	r0, r4
 8002d9c:	f000 fbb6 	bl	800350c <__lshift>
 8002da0:	4606      	mov	r6, r0
 8002da2:	9b0d      	ldr	r3, [sp, #52]	; 0x34
 8002da4:	2b00      	cmp	r3, #0
 8002da6:	f000 80d3 	beq.w	8002f50 <_dtoa_r+0x9b8>
 8002daa:	4631      	mov	r1, r6
 8002dac:	4650      	mov	r0, sl
 8002dae:	f000 fbfe 	bl	80035ae <__mcmp>
 8002db2:	2800      	cmp	r0, #0
 8002db4:	f280 80cc 	bge.w	8002f50 <_dtoa_r+0x9b8>
 8002db8:	2300      	movs	r3, #0
 8002dba:	4651      	mov	r1, sl
 8002dbc:	220a      	movs	r2, #10
 8002dbe:	4620      	mov	r0, r4
 8002dc0:	f000 fa38 	bl	8003234 <__multadd>
 8002dc4:	9b09      	ldr	r3, [sp, #36]	; 0x24
 8002dc6:	f10b 3bff 	add.w	fp, fp, #4294967295	; 0xffffffff
 8002dca:	4682      	mov	sl, r0
 8002dcc:	2b00      	cmp	r3, #0
 8002dce:	f000 81a9 	beq.w	8003124 <_dtoa_r+0xb8c>
 8002dd2:	2300      	movs	r3, #0
 8002dd4:	4639      	mov	r1, r7
 8002dd6:	220a      	movs	r2, #10
 8002dd8:	4620      	mov	r0, r4
 8002dda:	f000 fa2b 	bl	8003234 <__multadd>
 8002dde:	9b04      	ldr	r3, [sp, #16]
 8002de0:	4607      	mov	r7, r0
 8002de2:	2b00      	cmp	r3, #0
 8002de4:	dc03      	bgt.n	8002dee <_dtoa_r+0x856>
 8002de6:	9b1e      	ldr	r3, [sp, #120]	; 0x78
 8002de8:	2b02      	cmp	r3, #2
 8002dea:	f300 80b9 	bgt.w	8002f60 <_dtoa_r+0x9c8>
 8002dee:	2d00      	cmp	r5, #0
 8002df0:	dd05      	ble.n	8002dfe <_dtoa_r+0x866>
 8002df2:	4639      	mov	r1, r7
 8002df4:	462a      	mov	r2, r5
 8002df6:	4620      	mov	r0, r4
 8002df8:	f000 fb88 	bl	800350c <__lshift>
 8002dfc:	4607      	mov	r7, r0
 8002dfe:	9b08      	ldr	r3, [sp, #32]
 8002e00:	2b00      	cmp	r3, #0
 8002e02:	f000 8110 	beq.w	8003026 <_dtoa_r+0xa8e>
 8002e06:	6879      	ldr	r1, [r7, #4]
 8002e08:	4620      	mov	r0, r4
 8002e0a:	f000 f9c8 	bl	800319e <_Balloc>
 8002e0e:	4605      	mov	r5, r0
 8002e10:	693a      	ldr	r2, [r7, #16]
 8002e12:	f107 010c 	add.w	r1, r7, #12
 8002e16:	3202      	adds	r2, #2
 8002e18:	0092      	lsls	r2, r2, #2
 8002e1a:	300c      	adds	r0, #12
 8002e1c:	f000 f9b4 	bl	8003188 <memcpy>
 8002e20:	2201      	movs	r2, #1
 8002e22:	4629      	mov	r1, r5
 8002e24:	4620      	mov	r0, r4
 8002e26:	f000 fb71 	bl	800350c <__lshift>
 8002e2a:	9707      	str	r7, [sp, #28]
 8002e2c:	4607      	mov	r7, r0
 8002e2e:	9b02      	ldr	r3, [sp, #8]
 8002e30:	f8dd 8018 	ldr.w	r8, [sp, #24]
 8002e34:	f003 0301 	and.w	r3, r3, #1
 8002e38:	9308      	str	r3, [sp, #32]
 8002e3a:	4631      	mov	r1, r6
 8002e3c:	4650      	mov	r0, sl
 8002e3e:	f7ff fb1d 	bl	800247c <quorem>
 8002e42:	9907      	ldr	r1, [sp, #28]
 8002e44:	4605      	mov	r5, r0
 8002e46:	f100 0930 	add.w	r9, r0, #48	; 0x30
 8002e4a:	4650      	mov	r0, sl
 8002e4c:	f000 fbaf 	bl	80035ae <__mcmp>
 8002e50:	463a      	mov	r2, r7
 8002e52:	9002      	str	r0, [sp, #8]
 8002e54:	4631      	mov	r1, r6
 8002e56:	4620      	mov	r0, r4
 8002e58:	f000 fbc3 	bl	80035e2 <__mdiff>
 8002e5c:	68c3      	ldr	r3, [r0, #12]
 8002e5e:	4602      	mov	r2, r0
 8002e60:	2b00      	cmp	r3, #0
 8002e62:	f040 80e2 	bne.w	800302a <_dtoa_r+0xa92>
 8002e66:	4601      	mov	r1, r0
 8002e68:	9009      	str	r0, [sp, #36]	; 0x24
 8002e6a:	4650      	mov	r0, sl
 8002e6c:	f000 fb9f 	bl	80035ae <__mcmp>
 8002e70:	4603      	mov	r3, r0
 8002e72:	9a09      	ldr	r2, [sp, #36]	; 0x24
 8002e74:	4611      	mov	r1, r2
 8002e76:	4620      	mov	r0, r4
 8002e78:	9309      	str	r3, [sp, #36]	; 0x24
 8002e7a:	f000 f9c4 	bl	8003206 <_Bfree>
 8002e7e:	9b09      	ldr	r3, [sp, #36]	; 0x24
 8002e80:	2b00      	cmp	r3, #0
 8002e82:	f040 80d4 	bne.w	800302e <_dtoa_r+0xa96>
 8002e86:	9a1e      	ldr	r2, [sp, #120]	; 0x78
 8002e88:	2a00      	cmp	r2, #0
 8002e8a:	f040 80d0 	bne.w	800302e <_dtoa_r+0xa96>
 8002e8e:	9a08      	ldr	r2, [sp, #32]
 8002e90:	2a00      	cmp	r2, #0
 8002e92:	f040 80cc 	bne.w	800302e <_dtoa_r+0xa96>
 8002e96:	f1b9 0f39 	cmp.w	r9, #57	; 0x39
 8002e9a:	f000 80e8 	beq.w	800306e <_dtoa_r+0xad6>
 8002e9e:	9b02      	ldr	r3, [sp, #8]
 8002ea0:	2b00      	cmp	r3, #0
 8002ea2:	dd01      	ble.n	8002ea8 <_dtoa_r+0x910>
 8002ea4:	f105 0931 	add.w	r9, r5, #49	; 0x31
 8002ea8:	f108 0501 	add.w	r5, r8, #1
 8002eac:	f888 9000 	strb.w	r9, [r8]
 8002eb0:	e06b      	b.n	8002f8a <_dtoa_r+0x9f2>
 8002eb2:	9b12      	ldr	r3, [sp, #72]	; 0x48
 8002eb4:	f1c3 0336 	rsb	r3, r3, #54	; 0x36
 8002eb8:	e6f7      	b.n	8002caa <_dtoa_r+0x712>
 8002eba:	9b08      	ldr	r3, [sp, #32]
 8002ebc:	f109 36ff 	add.w	r6, r9, #4294967295	; 0xffffffff
 8002ec0:	42b3      	cmp	r3, r6
 8002ec2:	bfb7      	itett	lt
 8002ec4:	9b08      	ldrlt	r3, [sp, #32]
 8002ec6:	1b9e      	subge	r6, r3, r6
 8002ec8:	1af2      	sublt	r2, r6, r3
 8002eca:	9b0c      	ldrlt	r3, [sp, #48]	; 0x30
 8002ecc:	bfbf      	itttt	lt
 8002ece:	9608      	strlt	r6, [sp, #32]
 8002ed0:	189b      	addlt	r3, r3, r2
 8002ed2:	930c      	strlt	r3, [sp, #48]	; 0x30
 8002ed4:	2600      	movlt	r6, #0
 8002ed6:	f1b9 0f00 	cmp.w	r9, #0
 8002eda:	bfb9      	ittee	lt
 8002edc:	eba8 0509 	sublt.w	r5, r8, r9
 8002ee0:	2300      	movlt	r3, #0
 8002ee2:	4645      	movge	r5, r8
 8002ee4:	464b      	movge	r3, r9
 8002ee6:	e6e2      	b.n	8002cae <_dtoa_r+0x716>
 8002ee8:	9e08      	ldr	r6, [sp, #32]
 8002eea:	4645      	mov	r5, r8
 8002eec:	9f09      	ldr	r7, [sp, #36]	; 0x24
 8002eee:	e6e7      	b.n	8002cc0 <_dtoa_r+0x728>
 8002ef0:	9a08      	ldr	r2, [sp, #32]
 8002ef2:	e710      	b.n	8002d16 <_dtoa_r+0x77e>
 8002ef4:	9b1e      	ldr	r3, [sp, #120]	; 0x78
 8002ef6:	2b01      	cmp	r3, #1
 8002ef8:	dc18      	bgt.n	8002f2c <_dtoa_r+0x994>
 8002efa:	9b02      	ldr	r3, [sp, #8]
 8002efc:	b9b3      	cbnz	r3, 8002f2c <_dtoa_r+0x994>
 8002efe:	9b03      	ldr	r3, [sp, #12]
 8002f00:	f3c3 0313 	ubfx	r3, r3, #0, #20
 8002f04:	b9a3      	cbnz	r3, 8002f30 <_dtoa_r+0x998>
 8002f06:	9b03      	ldr	r3, [sp, #12]
 8002f08:	f023 4300 	bic.w	r3, r3, #2147483648	; 0x80000000
 8002f0c:	0d1b      	lsrs	r3, r3, #20
 8002f0e:	051b      	lsls	r3, r3, #20
 8002f10:	b12b      	cbz	r3, 8002f1e <_dtoa_r+0x986>
 8002f12:	9b07      	ldr	r3, [sp, #28]
 8002f14:	f108 0801 	add.w	r8, r8, #1
 8002f18:	3301      	adds	r3, #1
 8002f1a:	9307      	str	r3, [sp, #28]
 8002f1c:	2301      	movs	r3, #1
 8002f1e:	9308      	str	r3, [sp, #32]
 8002f20:	9b0c      	ldr	r3, [sp, #48]	; 0x30
 8002f22:	2b00      	cmp	r3, #0
 8002f24:	f47f af11 	bne.w	8002d4a <_dtoa_r+0x7b2>
 8002f28:	2001      	movs	r0, #1
 8002f2a:	e716      	b.n	8002d5a <_dtoa_r+0x7c2>
 8002f2c:	2300      	movs	r3, #0
 8002f2e:	e7f6      	b.n	8002f1e <_dtoa_r+0x986>
 8002f30:	9b02      	ldr	r3, [sp, #8]
 8002f32:	e7f4      	b.n	8002f1e <_dtoa_r+0x986>
 8002f34:	f43f af23 	beq.w	8002d7e <_dtoa_r+0x7e6>
 8002f38:	9a07      	ldr	r2, [sp, #28]
 8002f3a:	331c      	adds	r3, #28
 8002f3c:	441a      	add	r2, r3
 8002f3e:	4498      	add	r8, r3
 8002f40:	441d      	add	r5, r3
 8002f42:	4613      	mov	r3, r2
 8002f44:	e71a      	b.n	8002d7c <_dtoa_r+0x7e4>
 8002f46:	4603      	mov	r3, r0
 8002f48:	e7f6      	b.n	8002f38 <_dtoa_r+0x9a0>
 8002f4a:	bf00      	nop
 8002f4c:	40240000 	.word	0x40240000
 8002f50:	f1b9 0f00 	cmp.w	r9, #0
 8002f54:	dc33      	bgt.n	8002fbe <_dtoa_r+0xa26>
 8002f56:	9b1e      	ldr	r3, [sp, #120]	; 0x78
 8002f58:	2b02      	cmp	r3, #2
 8002f5a:	dd30      	ble.n	8002fbe <_dtoa_r+0xa26>
 8002f5c:	f8cd 9010 	str.w	r9, [sp, #16]
 8002f60:	9b04      	ldr	r3, [sp, #16]
 8002f62:	b963      	cbnz	r3, 8002f7e <_dtoa_r+0x9e6>
 8002f64:	4631      	mov	r1, r6
 8002f66:	2205      	movs	r2, #5
 8002f68:	4620      	mov	r0, r4
 8002f6a:	f000 f963 	bl	8003234 <__multadd>
 8002f6e:	4601      	mov	r1, r0
 8002f70:	4606      	mov	r6, r0
 8002f72:	4650      	mov	r0, sl
 8002f74:	f000 fb1b 	bl	80035ae <__mcmp>
 8002f78:	2800      	cmp	r0, #0
 8002f7a:	f73f ad5c 	bgt.w	8002a36 <_dtoa_r+0x49e>
 8002f7e:	9b1f      	ldr	r3, [sp, #124]	; 0x7c
 8002f80:	9d06      	ldr	r5, [sp, #24]
 8002f82:	ea6f 0b03 	mvn.w	fp, r3
 8002f86:	2300      	movs	r3, #0
 8002f88:	9307      	str	r3, [sp, #28]
 8002f8a:	4631      	mov	r1, r6
 8002f8c:	4620      	mov	r0, r4
 8002f8e:	f000 f93a 	bl	8003206 <_Bfree>
 8002f92:	2f00      	cmp	r7, #0
 8002f94:	f43f ae4b 	beq.w	8002c2e <_dtoa_r+0x696>
 8002f98:	9b07      	ldr	r3, [sp, #28]
 8002f9a:	b12b      	cbz	r3, 8002fa8 <_dtoa_r+0xa10>
 8002f9c:	42bb      	cmp	r3, r7
 8002f9e:	d003      	beq.n	8002fa8 <_dtoa_r+0xa10>
 8002fa0:	4619      	mov	r1, r3
 8002fa2:	4620      	mov	r0, r4
 8002fa4:	f000 f92f 	bl	8003206 <_Bfree>
 8002fa8:	4639      	mov	r1, r7
 8002faa:	4620      	mov	r0, r4
 8002fac:	f000 f92b 	bl	8003206 <_Bfree>
 8002fb0:	e63d      	b.n	8002c2e <_dtoa_r+0x696>
 8002fb2:	2600      	movs	r6, #0
 8002fb4:	4637      	mov	r7, r6
 8002fb6:	e7e2      	b.n	8002f7e <_dtoa_r+0x9e6>
 8002fb8:	46bb      	mov	fp, r7
 8002fba:	4637      	mov	r7, r6
 8002fbc:	e53b      	b.n	8002a36 <_dtoa_r+0x49e>
 8002fbe:	9b09      	ldr	r3, [sp, #36]	; 0x24
 8002fc0:	f8cd 9010 	str.w	r9, [sp, #16]
 8002fc4:	2b00      	cmp	r3, #0
 8002fc6:	f47f af12 	bne.w	8002dee <_dtoa_r+0x856>
 8002fca:	9d06      	ldr	r5, [sp, #24]
 8002fcc:	4631      	mov	r1, r6
 8002fce:	4650      	mov	r0, sl
 8002fd0:	f7ff fa54 	bl	800247c <quorem>
 8002fd4:	9b06      	ldr	r3, [sp, #24]
 8002fd6:	f100 0930 	add.w	r9, r0, #48	; 0x30
 8002fda:	f805 9b01 	strb.w	r9, [r5], #1
 8002fde:	9a04      	ldr	r2, [sp, #16]
 8002fe0:	1aeb      	subs	r3, r5, r3
 8002fe2:	429a      	cmp	r2, r3
 8002fe4:	f300 8081 	bgt.w	80030ea <_dtoa_r+0xb52>
 8002fe8:	9b06      	ldr	r3, [sp, #24]
 8002fea:	2a01      	cmp	r2, #1
 8002fec:	bfac      	ite	ge
 8002fee:	189b      	addge	r3, r3, r2
 8002ff0:	3301      	addlt	r3, #1
 8002ff2:	4698      	mov	r8, r3
 8002ff4:	2300      	movs	r3, #0
 8002ff6:	9307      	str	r3, [sp, #28]
 8002ff8:	4651      	mov	r1, sl
 8002ffa:	2201      	movs	r2, #1
 8002ffc:	4620      	mov	r0, r4
 8002ffe:	f000 fa85 	bl	800350c <__lshift>
 8003002:	4631      	mov	r1, r6
 8003004:	4682      	mov	sl, r0
 8003006:	f000 fad2 	bl	80035ae <__mcmp>
 800300a:	2800      	cmp	r0, #0
 800300c:	dc34      	bgt.n	8003078 <_dtoa_r+0xae0>
 800300e:	d102      	bne.n	8003016 <_dtoa_r+0xa7e>
 8003010:	f019 0f01 	tst.w	r9, #1
 8003014:	d130      	bne.n	8003078 <_dtoa_r+0xae0>
 8003016:	4645      	mov	r5, r8
 8003018:	f815 3c01 	ldrb.w	r3, [r5, #-1]
 800301c:	1e6a      	subs	r2, r5, #1
 800301e:	2b30      	cmp	r3, #48	; 0x30
 8003020:	d1b3      	bne.n	8002f8a <_dtoa_r+0x9f2>
 8003022:	4615      	mov	r5, r2
 8003024:	e7f8      	b.n	8003018 <_dtoa_r+0xa80>
 8003026:	4638      	mov	r0, r7
 8003028:	e6ff      	b.n	8002e2a <_dtoa_r+0x892>
 800302a:	2301      	movs	r3, #1
 800302c:	e722      	b.n	8002e74 <_dtoa_r+0x8dc>
 800302e:	9a02      	ldr	r2, [sp, #8]
 8003030:	2a00      	cmp	r2, #0
 8003032:	db04      	blt.n	800303e <_dtoa_r+0xaa6>
 8003034:	d128      	bne.n	8003088 <_dtoa_r+0xaf0>
 8003036:	9a1e      	ldr	r2, [sp, #120]	; 0x78
 8003038:	bb32      	cbnz	r2, 8003088 <_dtoa_r+0xaf0>
 800303a:	9a08      	ldr	r2, [sp, #32]
 800303c:	bb22      	cbnz	r2, 8003088 <_dtoa_r+0xaf0>
 800303e:	2b00      	cmp	r3, #0
 8003040:	f77f af32 	ble.w	8002ea8 <_dtoa_r+0x910>
 8003044:	4651      	mov	r1, sl
 8003046:	2201      	movs	r2, #1
 8003048:	4620      	mov	r0, r4
 800304a:	f000 fa5f 	bl	800350c <__lshift>
 800304e:	4631      	mov	r1, r6
 8003050:	4682      	mov	sl, r0
 8003052:	f000 faac 	bl	80035ae <__mcmp>
 8003056:	2800      	cmp	r0, #0
 8003058:	dc05      	bgt.n	8003066 <_dtoa_r+0xace>
 800305a:	f47f af25 	bne.w	8002ea8 <_dtoa_r+0x910>
 800305e:	f019 0f01 	tst.w	r9, #1
 8003062:	f43f af21 	beq.w	8002ea8 <_dtoa_r+0x910>
 8003066:	f1b9 0f39 	cmp.w	r9, #57	; 0x39
 800306a:	f47f af1b 	bne.w	8002ea4 <_dtoa_r+0x90c>
 800306e:	2339      	movs	r3, #57	; 0x39
 8003070:	f108 0801 	add.w	r8, r8, #1
 8003074:	f808 3c01 	strb.w	r3, [r8, #-1]
 8003078:	4645      	mov	r5, r8
 800307a:	f815 3c01 	ldrb.w	r3, [r5, #-1]
 800307e:	1e6a      	subs	r2, r5, #1
 8003080:	2b39      	cmp	r3, #57	; 0x39
 8003082:	d03a      	beq.n	80030fa <_dtoa_r+0xb62>
 8003084:	3301      	adds	r3, #1
 8003086:	e03f      	b.n	8003108 <_dtoa_r+0xb70>
 8003088:	2b00      	cmp	r3, #0
 800308a:	f108 0501 	add.w	r5, r8, #1
 800308e:	dd05      	ble.n	800309c <_dtoa_r+0xb04>
 8003090:	f1b9 0f39 	cmp.w	r9, #57	; 0x39
 8003094:	d0eb      	beq.n	800306e <_dtoa_r+0xad6>
 8003096:	f109 0901 	add.w	r9, r9, #1
 800309a:	e707      	b.n	8002eac <_dtoa_r+0x914>
 800309c:	9b06      	ldr	r3, [sp, #24]
 800309e:	9a04      	ldr	r2, [sp, #16]
 80030a0:	1aeb      	subs	r3, r5, r3
 80030a2:	4293      	cmp	r3, r2
 80030a4:	46a8      	mov	r8, r5
 80030a6:	f805 9c01 	strb.w	r9, [r5, #-1]
 80030aa:	d0a5      	beq.n	8002ff8 <_dtoa_r+0xa60>
 80030ac:	4651      	mov	r1, sl
 80030ae:	2300      	movs	r3, #0
 80030b0:	220a      	movs	r2, #10
 80030b2:	4620      	mov	r0, r4
 80030b4:	f000 f8be 	bl	8003234 <__multadd>
 80030b8:	9b07      	ldr	r3, [sp, #28]
 80030ba:	4682      	mov	sl, r0
 80030bc:	42bb      	cmp	r3, r7
 80030be:	f04f 020a 	mov.w	r2, #10
 80030c2:	f04f 0300 	mov.w	r3, #0
 80030c6:	9907      	ldr	r1, [sp, #28]
 80030c8:	4620      	mov	r0, r4
 80030ca:	d104      	bne.n	80030d6 <_dtoa_r+0xb3e>
 80030cc:	f000 f8b2 	bl	8003234 <__multadd>
 80030d0:	9007      	str	r0, [sp, #28]
 80030d2:	4607      	mov	r7, r0
 80030d4:	e6b1      	b.n	8002e3a <_dtoa_r+0x8a2>
 80030d6:	f000 f8ad 	bl	8003234 <__multadd>
 80030da:	2300      	movs	r3, #0
 80030dc:	9007      	str	r0, [sp, #28]
 80030de:	220a      	movs	r2, #10
 80030e0:	4639      	mov	r1, r7
 80030e2:	4620      	mov	r0, r4
 80030e4:	f000 f8a6 	bl	8003234 <__multadd>
 80030e8:	e7f3      	b.n	80030d2 <_dtoa_r+0xb3a>
 80030ea:	4651      	mov	r1, sl
 80030ec:	2300      	movs	r3, #0
 80030ee:	220a      	movs	r2, #10
 80030f0:	4620      	mov	r0, r4
 80030f2:	f000 f89f 	bl	8003234 <__multadd>
 80030f6:	4682      	mov	sl, r0
 80030f8:	e768      	b.n	8002fcc <_dtoa_r+0xa34>
 80030fa:	9b06      	ldr	r3, [sp, #24]
 80030fc:	4293      	cmp	r3, r2
 80030fe:	d105      	bne.n	800310c <_dtoa_r+0xb74>
 8003100:	2331      	movs	r3, #49	; 0x31
 8003102:	9a06      	ldr	r2, [sp, #24]
 8003104:	f10b 0b01 	add.w	fp, fp, #1
 8003108:	7013      	strb	r3, [r2, #0]
 800310a:	e73e      	b.n	8002f8a <_dtoa_r+0x9f2>
 800310c:	4615      	mov	r5, r2
 800310e:	e7b4      	b.n	800307a <_dtoa_r+0xae2>
 8003110:	4b09      	ldr	r3, [pc, #36]	; (8003138 <_dtoa_r+0xba0>)
 8003112:	f7ff baa3 	b.w	800265c <_dtoa_r+0xc4>
 8003116:	9b22      	ldr	r3, [sp, #136]	; 0x88
 8003118:	2b00      	cmp	r3, #0
 800311a:	f47f aa7d 	bne.w	8002618 <_dtoa_r+0x80>
 800311e:	4b07      	ldr	r3, [pc, #28]	; (800313c <_dtoa_r+0xba4>)
 8003120:	f7ff ba9c 	b.w	800265c <_dtoa_r+0xc4>
 8003124:	9b04      	ldr	r3, [sp, #16]
 8003126:	2b00      	cmp	r3, #0
 8003128:	f73f af4f 	bgt.w	8002fca <_dtoa_r+0xa32>
 800312c:	9b1e      	ldr	r3, [sp, #120]	; 0x78
 800312e:	2b02      	cmp	r3, #2
 8003130:	f77f af4b 	ble.w	8002fca <_dtoa_r+0xa32>
 8003134:	e714      	b.n	8002f60 <_dtoa_r+0x9c8>
 8003136:	bf00      	nop
 8003138:	08003cd0 	.word	0x08003cd0
 800313c:	08003cf4 	.word	0x08003cf4

08003140 <_localeconv_r>:
 8003140:	4b04      	ldr	r3, [pc, #16]	; (8003154 <_localeconv_r+0x14>)
 8003142:	681b      	ldr	r3, [r3, #0]
 8003144:	6a18      	ldr	r0, [r3, #32]
 8003146:	4b04      	ldr	r3, [pc, #16]	; (8003158 <_localeconv_r+0x18>)
 8003148:	2800      	cmp	r0, #0
 800314a:	bf08      	it	eq
 800314c:	4618      	moveq	r0, r3
 800314e:	30f0      	adds	r0, #240	; 0xf0
 8003150:	4770      	bx	lr
 8003152:	bf00      	nop
 8003154:	20000010 	.word	0x20000010
 8003158:	20000074 	.word	0x20000074

0800315c <malloc>:
 800315c:	4b02      	ldr	r3, [pc, #8]	; (8003168 <malloc+0xc>)
 800315e:	4601      	mov	r1, r0
 8003160:	6818      	ldr	r0, [r3, #0]
 8003162:	f000 bb47 	b.w	80037f4 <_malloc_r>
 8003166:	bf00      	nop
 8003168:	20000010 	.word	0x20000010

0800316c <memchr>:
 800316c:	b510      	push	{r4, lr}
 800316e:	b2c9      	uxtb	r1, r1
 8003170:	4402      	add	r2, r0
 8003172:	4290      	cmp	r0, r2
 8003174:	4603      	mov	r3, r0
 8003176:	d101      	bne.n	800317c <memchr+0x10>
 8003178:	2000      	movs	r0, #0
 800317a:	bd10      	pop	{r4, pc}
 800317c:	781c      	ldrb	r4, [r3, #0]
 800317e:	3001      	adds	r0, #1
 8003180:	428c      	cmp	r4, r1
 8003182:	d1f6      	bne.n	8003172 <memchr+0x6>
 8003184:	4618      	mov	r0, r3
 8003186:	bd10      	pop	{r4, pc}

08003188 <memcpy>:
 8003188:	b510      	push	{r4, lr}
 800318a:	1e43      	subs	r3, r0, #1
 800318c:	440a      	add	r2, r1
 800318e:	4291      	cmp	r1, r2
 8003190:	d100      	bne.n	8003194 <memcpy+0xc>
 8003192:	bd10      	pop	{r4, pc}
 8003194:	f811 4b01 	ldrb.w	r4, [r1], #1
 8003198:	f803 4f01 	strb.w	r4, [r3, #1]!
 800319c:	e7f7      	b.n	800318e <memcpy+0x6>

0800319e <_Balloc>:
 800319e:	b570      	push	{r4, r5, r6, lr}
 80031a0:	6a45      	ldr	r5, [r0, #36]	; 0x24
 80031a2:	4604      	mov	r4, r0
 80031a4:	460e      	mov	r6, r1
 80031a6:	b93d      	cbnz	r5, 80031b8 <_Balloc+0x1a>
 80031a8:	2010      	movs	r0, #16
 80031aa:	f7ff ffd7 	bl	800315c <malloc>
 80031ae:	6260      	str	r0, [r4, #36]	; 0x24
 80031b0:	6045      	str	r5, [r0, #4]
 80031b2:	6085      	str	r5, [r0, #8]
 80031b4:	6005      	str	r5, [r0, #0]
 80031b6:	60c5      	str	r5, [r0, #12]
 80031b8:	6a65      	ldr	r5, [r4, #36]	; 0x24
 80031ba:	68eb      	ldr	r3, [r5, #12]
 80031bc:	b183      	cbz	r3, 80031e0 <_Balloc+0x42>
 80031be:	6a63      	ldr	r3, [r4, #36]	; 0x24
 80031c0:	68db      	ldr	r3, [r3, #12]
 80031c2:	f853 0026 	ldr.w	r0, [r3, r6, lsl #2]
 80031c6:	b9b8      	cbnz	r0, 80031f8 <_Balloc+0x5a>
 80031c8:	2101      	movs	r1, #1
 80031ca:	fa01 f506 	lsl.w	r5, r1, r6
 80031ce:	1d6a      	adds	r2, r5, #5
 80031d0:	0092      	lsls	r2, r2, #2
 80031d2:	4620      	mov	r0, r4
 80031d4:	f000 fab3 	bl	800373e <_calloc_r>
 80031d8:	b160      	cbz	r0, 80031f4 <_Balloc+0x56>
 80031da:	6046      	str	r6, [r0, #4]
 80031dc:	6085      	str	r5, [r0, #8]
 80031de:	e00e      	b.n	80031fe <_Balloc+0x60>
 80031e0:	2221      	movs	r2, #33	; 0x21
 80031e2:	2104      	movs	r1, #4
 80031e4:	4620      	mov	r0, r4
 80031e6:	f000 faaa 	bl	800373e <_calloc_r>
 80031ea:	6a63      	ldr	r3, [r4, #36]	; 0x24
 80031ec:	60e8      	str	r0, [r5, #12]
 80031ee:	68db      	ldr	r3, [r3, #12]
 80031f0:	2b00      	cmp	r3, #0
 80031f2:	d1e4      	bne.n	80031be <_Balloc+0x20>
 80031f4:	2000      	movs	r0, #0
 80031f6:	bd70      	pop	{r4, r5, r6, pc}
 80031f8:	6802      	ldr	r2, [r0, #0]
 80031fa:	f843 2026 	str.w	r2, [r3, r6, lsl #2]
 80031fe:	2300      	movs	r3, #0
 8003200:	6103      	str	r3, [r0, #16]
 8003202:	60c3      	str	r3, [r0, #12]
 8003204:	bd70      	pop	{r4, r5, r6, pc}

08003206 <_Bfree>:
 8003206:	b570      	push	{r4, r5, r6, lr}
 8003208:	6a44      	ldr	r4, [r0, #36]	; 0x24
 800320a:	4606      	mov	r6, r0
 800320c:	460d      	mov	r5, r1
 800320e:	b93c      	cbnz	r4, 8003220 <_Bfree+0x1a>
 8003210:	2010      	movs	r0, #16
 8003212:	f7ff ffa3 	bl	800315c <malloc>
 8003216:	6270      	str	r0, [r6, #36]	; 0x24
 8003218:	6044      	str	r4, [r0, #4]
 800321a:	6084      	str	r4, [r0, #8]
 800321c:	6004      	str	r4, [r0, #0]
 800321e:	60c4      	str	r4, [r0, #12]
 8003220:	b13d      	cbz	r5, 8003232 <_Bfree+0x2c>
 8003222:	6a73      	ldr	r3, [r6, #36]	; 0x24
 8003224:	686a      	ldr	r2, [r5, #4]
 8003226:	68db      	ldr	r3, [r3, #12]
 8003228:	f853 1022 	ldr.w	r1, [r3, r2, lsl #2]
 800322c:	6029      	str	r1, [r5, #0]
 800322e:	f843 5022 	str.w	r5, [r3, r2, lsl #2]
 8003232:	bd70      	pop	{r4, r5, r6, pc}

08003234 <__multadd>:
 8003234:	e92d 41f0 	stmdb	sp!, {r4, r5, r6, r7, r8, lr}
 8003238:	461f      	mov	r7, r3
 800323a:	4606      	mov	r6, r0
 800323c:	460c      	mov	r4, r1
 800323e:	2300      	movs	r3, #0
 8003240:	690d      	ldr	r5, [r1, #16]
 8003242:	f101 0e14 	add.w	lr, r1, #20
 8003246:	f8de 0000 	ldr.w	r0, [lr]
 800324a:	3301      	adds	r3, #1
 800324c:	b281      	uxth	r1, r0
 800324e:	fb02 7101 	mla	r1, r2, r1, r7
 8003252:	0c00      	lsrs	r0, r0, #16
 8003254:	0c0f      	lsrs	r7, r1, #16
 8003256:	fb02 7000 	mla	r0, r2, r0, r7
 800325a:	b289      	uxth	r1, r1
 800325c:	eb01 4100 	add.w	r1, r1, r0, lsl #16
 8003260:	429d      	cmp	r5, r3
 8003262:	ea4f 4710 	mov.w	r7, r0, lsr #16
 8003266:	f84e 1b04 	str.w	r1, [lr], #4
 800326a:	dcec      	bgt.n	8003246 <__multadd+0x12>
 800326c:	b1d7      	cbz	r7, 80032a4 <__multadd+0x70>
 800326e:	68a3      	ldr	r3, [r4, #8]
 8003270:	429d      	cmp	r5, r3
 8003272:	db12      	blt.n	800329a <__multadd+0x66>
 8003274:	6861      	ldr	r1, [r4, #4]
 8003276:	4630      	mov	r0, r6
 8003278:	3101      	adds	r1, #1
 800327a:	f7ff ff90 	bl	800319e <_Balloc>
 800327e:	4680      	mov	r8, r0
 8003280:	6922      	ldr	r2, [r4, #16]
 8003282:	f104 010c 	add.w	r1, r4, #12
 8003286:	3202      	adds	r2, #2
 8003288:	0092      	lsls	r2, r2, #2
 800328a:	300c      	adds	r0, #12
 800328c:	f7ff ff7c 	bl	8003188 <memcpy>
 8003290:	4621      	mov	r1, r4
 8003292:	4630      	mov	r0, r6
 8003294:	f7ff ffb7 	bl	8003206 <_Bfree>
 8003298:	4644      	mov	r4, r8
 800329a:	eb04 0385 	add.w	r3, r4, r5, lsl #2
 800329e:	3501      	adds	r5, #1
 80032a0:	615f      	str	r7, [r3, #20]
 80032a2:	6125      	str	r5, [r4, #16]
 80032a4:	4620      	mov	r0, r4
 80032a6:	e8bd 81f0 	ldmia.w	sp!, {r4, r5, r6, r7, r8, pc}

080032aa <__hi0bits>:
 80032aa:	0c02      	lsrs	r2, r0, #16
 80032ac:	0412      	lsls	r2, r2, #16
 80032ae:	4603      	mov	r3, r0
 80032b0:	b9b2      	cbnz	r2, 80032e0 <__hi0bits+0x36>
 80032b2:	0403      	lsls	r3, r0, #16
 80032b4:	2010      	movs	r0, #16
 80032b6:	f013 4f7f 	tst.w	r3, #4278190080	; 0xff000000
 80032ba:	bf04      	itt	eq
 80032bc:	021b      	lsleq	r3, r3, #8
 80032be:	3008      	addeq	r0, #8
 80032c0:	f013 4f70 	tst.w	r3, #4026531840	; 0xf0000000
 80032c4:	bf04      	itt	eq
 80032c6:	011b      	lsleq	r3, r3, #4
 80032c8:	3004      	addeq	r0, #4
 80032ca:	f013 4f40 	tst.w	r3, #3221225472	; 0xc0000000
 80032ce:	bf04      	itt	eq
 80032d0:	009b      	lsleq	r3, r3, #2
 80032d2:	3002      	addeq	r0, #2
 80032d4:	2b00      	cmp	r3, #0
 80032d6:	db06      	blt.n	80032e6 <__hi0bits+0x3c>
 80032d8:	005b      	lsls	r3, r3, #1
 80032da:	d503      	bpl.n	80032e4 <__hi0bits+0x3a>
 80032dc:	3001      	adds	r0, #1
 80032de:	4770      	bx	lr
 80032e0:	2000      	movs	r0, #0
 80032e2:	e7e8      	b.n	80032b6 <__hi0bits+0xc>
 80032e4:	2020      	movs	r0, #32
 80032e6:	4770      	bx	lr

080032e8 <__lo0bits>:
 80032e8:	6803      	ldr	r3, [r0, #0]
 80032ea:	4601      	mov	r1, r0
 80032ec:	f013 0207 	ands.w	r2, r3, #7
 80032f0:	d00b      	beq.n	800330a <__lo0bits+0x22>
 80032f2:	07da      	lsls	r2, r3, #31
 80032f4:	d423      	bmi.n	800333e <__lo0bits+0x56>
 80032f6:	0798      	lsls	r0, r3, #30
 80032f8:	bf49      	itett	mi
 80032fa:	085b      	lsrmi	r3, r3, #1
 80032fc:	089b      	lsrpl	r3, r3, #2
 80032fe:	2001      	movmi	r0, #1
 8003300:	600b      	strmi	r3, [r1, #0]
 8003302:	bf5c      	itt	pl
 8003304:	600b      	strpl	r3, [r1, #0]
 8003306:	2002      	movpl	r0, #2
 8003308:	4770      	bx	lr
 800330a:	b298      	uxth	r0, r3
 800330c:	b9a8      	cbnz	r0, 800333a <__lo0bits+0x52>
 800330e:	2010      	movs	r0, #16
 8003310:	0c1b      	lsrs	r3, r3, #16
 8003312:	f013 0fff 	tst.w	r3, #255	; 0xff
 8003316:	bf04      	itt	eq
 8003318:	0a1b      	lsreq	r3, r3, #8
 800331a:	3008      	addeq	r0, #8
 800331c:	071a      	lsls	r2, r3, #28
 800331e:	bf04      	itt	eq
 8003320:	091b      	lsreq	r3, r3, #4
 8003322:	3004      	addeq	r0, #4
 8003324:	079a      	lsls	r2, r3, #30
 8003326:	bf04      	itt	eq
 8003328:	089b      	lsreq	r3, r3, #2
 800332a:	3002      	addeq	r0, #2
 800332c:	07da      	lsls	r2, r3, #31
 800332e:	d402      	bmi.n	8003336 <__lo0bits+0x4e>
 8003330:	085b      	lsrs	r3, r3, #1
 8003332:	d006      	beq.n	8003342 <__lo0bits+0x5a>
 8003334:	3001      	adds	r0, #1
 8003336:	600b      	str	r3, [r1, #0]
 8003338:	4770      	bx	lr
 800333a:	4610      	mov	r0, r2
 800333c:	e7e9      	b.n	8003312 <__lo0bits+0x2a>
 800333e:	2000      	movs	r0, #0
 8003340:	4770      	bx	lr
 8003342:	2020      	movs	r0, #32
 8003344:	4770      	bx	lr

08003346 <__i2b>:
 8003346:	b510      	push	{r4, lr}
 8003348:	460c      	mov	r4, r1
 800334a:	2101      	movs	r1, #1
 800334c:	f7ff ff27 	bl	800319e <_Balloc>
 8003350:	2201      	movs	r2, #1
 8003352:	6144      	str	r4, [r0, #20]
 8003354:	6102      	str	r2, [r0, #16]
 8003356:	bd10      	pop	{r4, pc}

08003358 <__multiply>:
 8003358:	e92d 4ff7 	stmdb	sp!, {r0, r1, r2, r4, r5, r6, r7, r8, r9, sl, fp, lr}
 800335c:	4614      	mov	r4, r2
 800335e:	690a      	ldr	r2, [r1, #16]
 8003360:	6923      	ldr	r3, [r4, #16]
 8003362:	4689      	mov	r9, r1
 8003364:	429a      	cmp	r2, r3
 8003366:	bfbe      	ittt	lt
 8003368:	460b      	movlt	r3, r1
 800336a:	46a1      	movlt	r9, r4
 800336c:	461c      	movlt	r4, r3
 800336e:	f8d9 7010 	ldr.w	r7, [r9, #16]
 8003372:	f8d4 a010 	ldr.w	sl, [r4, #16]
 8003376:	f8d9 3008 	ldr.w	r3, [r9, #8]
 800337a:	f8d9 1004 	ldr.w	r1, [r9, #4]
 800337e:	eb07 060a 	add.w	r6, r7, sl
 8003382:	429e      	cmp	r6, r3
 8003384:	bfc8      	it	gt
 8003386:	3101      	addgt	r1, #1
 8003388:	f7ff ff09 	bl	800319e <_Balloc>
 800338c:	f100 0514 	add.w	r5, r0, #20
 8003390:	462b      	mov	r3, r5
 8003392:	2200      	movs	r2, #0
 8003394:	eb05 0886 	add.w	r8, r5, r6, lsl #2
 8003398:	4543      	cmp	r3, r8
 800339a:	d316      	bcc.n	80033ca <__multiply+0x72>
 800339c:	f104 0214 	add.w	r2, r4, #20
 80033a0:	f109 0114 	add.w	r1, r9, #20
 80033a4:	eb02 038a 	add.w	r3, r2, sl, lsl #2
 80033a8:	eb01 0787 	add.w	r7, r1, r7, lsl #2
 80033ac:	9301      	str	r3, [sp, #4]
 80033ae:	9c01      	ldr	r4, [sp, #4]
 80033b0:	4613      	mov	r3, r2
 80033b2:	4294      	cmp	r4, r2
 80033b4:	d80c      	bhi.n	80033d0 <__multiply+0x78>
 80033b6:	2e00      	cmp	r6, #0
 80033b8:	dd03      	ble.n	80033c2 <__multiply+0x6a>
 80033ba:	f858 3d04 	ldr.w	r3, [r8, #-4]!
 80033be:	2b00      	cmp	r3, #0
 80033c0:	d054      	beq.n	800346c <__multiply+0x114>
 80033c2:	6106      	str	r6, [r0, #16]
 80033c4:	b003      	add	sp, #12
 80033c6:	e8bd 8ff0 	ldmia.w	sp!, {r4, r5, r6, r7, r8, r9, sl, fp, pc}
 80033ca:	f843 2b04 	str.w	r2, [r3], #4
 80033ce:	e7e3      	b.n	8003398 <__multiply+0x40>
 80033d0:	f8b3 a000 	ldrh.w	sl, [r3]
 80033d4:	3204      	adds	r2, #4
 80033d6:	f1ba 0f00 	cmp.w	sl, #0
 80033da:	d020      	beq.n	800341e <__multiply+0xc6>
 80033dc:	46ae      	mov	lr, r5
 80033de:	4689      	mov	r9, r1
 80033e0:	f04f 0c00 	mov.w	ip, #0
 80033e4:	f859 4b04 	ldr.w	r4, [r9], #4
 80033e8:	f8be b000 	ldrh.w	fp, [lr]
 80033ec:	b2a3      	uxth	r3, r4
 80033ee:	fb0a b303 	mla	r3, sl, r3, fp
 80033f2:	ea4f 4b14 	mov.w	fp, r4, lsr #16
 80033f6:	f8de 4000 	ldr.w	r4, [lr]
 80033fa:	4463      	add	r3, ip
 80033fc:	ea4f 4c14 	mov.w	ip, r4, lsr #16
 8003400:	fb0a c40b 	mla	r4, sl, fp, ip
 8003404:	eb04 4413 	add.w	r4, r4, r3, lsr #16
 8003408:	b29b      	uxth	r3, r3
 800340a:	ea43 4304 	orr.w	r3, r3, r4, lsl #16
 800340e:	454f      	cmp	r7, r9
 8003410:	ea4f 4c14 	mov.w	ip, r4, lsr #16
 8003414:	f84e 3b04 	str.w	r3, [lr], #4
 8003418:	d8e4      	bhi.n	80033e4 <__multiply+0x8c>
 800341a:	f8ce c000 	str.w	ip, [lr]
 800341e:	f832 9c02 	ldrh.w	r9, [r2, #-2]
 8003422:	f1b9 0f00 	cmp.w	r9, #0
 8003426:	d01f      	beq.n	8003468 <__multiply+0x110>
 8003428:	46ae      	mov	lr, r5
 800342a:	468c      	mov	ip, r1
 800342c:	f04f 0a00 	mov.w	sl, #0
 8003430:	682b      	ldr	r3, [r5, #0]
 8003432:	f8bc 4000 	ldrh.w	r4, [ip]
 8003436:	f8be b002 	ldrh.w	fp, [lr, #2]
 800343a:	b29b      	uxth	r3, r3
 800343c:	fb09 b404 	mla	r4, r9, r4, fp
 8003440:	44a2      	add	sl, r4
 8003442:	ea43 430a 	orr.w	r3, r3, sl, lsl #16
 8003446:	f84e 3b04 	str.w	r3, [lr], #4
 800344a:	f85c 3b04 	ldr.w	r3, [ip], #4
 800344e:	f8be 4000 	ldrh.w	r4, [lr]
 8003452:	0c1b      	lsrs	r3, r3, #16
 8003454:	fb09 4303 	mla	r3, r9, r3, r4
 8003458:	4567      	cmp	r7, ip
 800345a:	eb03 431a 	add.w	r3, r3, sl, lsr #16
 800345e:	ea4f 4a13 	mov.w	sl, r3, lsr #16
 8003462:	d8e6      	bhi.n	8003432 <__multiply+0xda>
 8003464:	f8ce 3000 	str.w	r3, [lr]
 8003468:	3504      	adds	r5, #4
 800346a:	e7a0      	b.n	80033ae <__multiply+0x56>
 800346c:	3e01      	subs	r6, #1
 800346e:	e7a2      	b.n	80033b6 <__multiply+0x5e>

08003470 <__pow5mult>:
 8003470:	e92d 43f8 	stmdb	sp!, {r3, r4, r5, r6, r7, r8, r9, lr}
 8003474:	4615      	mov	r5, r2
 8003476:	f012 0203 	ands.w	r2, r2, #3
 800347a:	4606      	mov	r6, r0
 800347c:	460f      	mov	r7, r1
 800347e:	d007      	beq.n	8003490 <__pow5mult+0x20>
 8003480:	4c21      	ldr	r4, [pc, #132]	; (8003508 <__pow5mult+0x98>)
 8003482:	3a01      	subs	r2, #1
 8003484:	2300      	movs	r3, #0
 8003486:	f854 2022 	ldr.w	r2, [r4, r2, lsl #2]
 800348a:	f7ff fed3 	bl	8003234 <__multadd>
 800348e:	4607      	mov	r7, r0
 8003490:	10ad      	asrs	r5, r5, #2
 8003492:	d035      	beq.n	8003500 <__pow5mult+0x90>
 8003494:	6a74      	ldr	r4, [r6, #36]	; 0x24
 8003496:	b93c      	cbnz	r4, 80034a8 <__pow5mult+0x38>
 8003498:	2010      	movs	r0, #16
 800349a:	f7ff fe5f 	bl	800315c <malloc>
 800349e:	6270      	str	r0, [r6, #36]	; 0x24
 80034a0:	6044      	str	r4, [r0, #4]
 80034a2:	6084      	str	r4, [r0, #8]
 80034a4:	6004      	str	r4, [r0, #0]
 80034a6:	60c4      	str	r4, [r0, #12]
 80034a8:	f8d6 8024 	ldr.w	r8, [r6, #36]	; 0x24
 80034ac:	f8d8 4008 	ldr.w	r4, [r8, #8]
 80034b0:	b94c      	cbnz	r4, 80034c6 <__pow5mult+0x56>
 80034b2:	f240 2171 	movw	r1, #625	; 0x271
 80034b6:	4630      	mov	r0, r6
 80034b8:	f7ff ff45 	bl	8003346 <__i2b>
 80034bc:	2300      	movs	r3, #0
 80034be:	4604      	mov	r4, r0
 80034c0:	f8c8 0008 	str.w	r0, [r8, #8]
 80034c4:	6003      	str	r3, [r0, #0]
 80034c6:	f04f 0800 	mov.w	r8, #0
 80034ca:	07eb      	lsls	r3, r5, #31
 80034cc:	d50a      	bpl.n	80034e4 <__pow5mult+0x74>
 80034ce:	4639      	mov	r1, r7
 80034d0:	4622      	mov	r2, r4
 80034d2:	4630      	mov	r0, r6
 80034d4:	f7ff ff40 	bl	8003358 <__multiply>
 80034d8:	4681      	mov	r9, r0
 80034da:	4639      	mov	r1, r7
 80034dc:	4630      	mov	r0, r6
 80034de:	f7ff fe92 	bl	8003206 <_Bfree>
 80034e2:	464f      	mov	r7, r9
 80034e4:	106d      	asrs	r5, r5, #1
 80034e6:	d00b      	beq.n	8003500 <__pow5mult+0x90>
 80034e8:	6820      	ldr	r0, [r4, #0]
 80034ea:	b938      	cbnz	r0, 80034fc <__pow5mult+0x8c>
 80034ec:	4622      	mov	r2, r4
 80034ee:	4621      	mov	r1, r4
 80034f0:	4630      	mov	r0, r6
 80034f2:	f7ff ff31 	bl	8003358 <__multiply>
 80034f6:	6020      	str	r0, [r4, #0]
 80034f8:	f8c0 8000 	str.w	r8, [r0]
 80034fc:	4604      	mov	r4, r0
 80034fe:	e7e4      	b.n	80034ca <__pow5mult+0x5a>
 8003500:	4638      	mov	r0, r7
 8003502:	e8bd 83f8 	ldmia.w	sp!, {r3, r4, r5, r6, r7, r8, r9, pc}
 8003506:	bf00      	nop
 8003508:	08003df8 	.word	0x08003df8

0800350c <__lshift>:
 800350c:	e92d 47f0 	stmdb	sp!, {r4, r5, r6, r7, r8, r9, sl, lr}
 8003510:	460c      	mov	r4, r1
 8003512:	4607      	mov	r7, r0
 8003514:	4616      	mov	r6, r2
 8003516:	6923      	ldr	r3, [r4, #16]
 8003518:	ea4f 1a62 	mov.w	sl, r2, asr #5
 800351c:	eb0a 0903 	add.w	r9, sl, r3
 8003520:	6849      	ldr	r1, [r1, #4]
 8003522:	68a3      	ldr	r3, [r4, #8]
 8003524:	f109 0501 	add.w	r5, r9, #1
 8003528:	42ab      	cmp	r3, r5
 800352a:	db31      	blt.n	8003590 <__lshift+0x84>
 800352c:	4638      	mov	r0, r7
 800352e:	f7ff fe36 	bl	800319e <_Balloc>
 8003532:	2200      	movs	r2, #0
 8003534:	4680      	mov	r8, r0
 8003536:	4611      	mov	r1, r2
 8003538:	f100 0314 	add.w	r3, r0, #20
 800353c:	4552      	cmp	r2, sl
 800353e:	db2a      	blt.n	8003596 <__lshift+0x8a>
 8003540:	6920      	ldr	r0, [r4, #16]
 8003542:	ea2a 7aea 	bic.w	sl, sl, sl, asr #31
 8003546:	f104 0114 	add.w	r1, r4, #20
 800354a:	f016 021f 	ands.w	r2, r6, #31
 800354e:	eb03 038a 	add.w	r3, r3, sl, lsl #2
 8003552:	eb01 0e80 	add.w	lr, r1, r0, lsl #2
 8003556:	d022      	beq.n	800359e <__lshift+0x92>
 8003558:	2000      	movs	r0, #0
 800355a:	f1c2 0c20 	rsb	ip, r2, #32
 800355e:	680e      	ldr	r6, [r1, #0]
 8003560:	4096      	lsls	r6, r2
 8003562:	4330      	orrs	r0, r6
 8003564:	f843 0b04 	str.w	r0, [r3], #4
 8003568:	f851 0b04 	ldr.w	r0, [r1], #4
 800356c:	458e      	cmp	lr, r1
 800356e:	fa20 f00c 	lsr.w	r0, r0, ip
 8003572:	d8f4      	bhi.n	800355e <__lshift+0x52>
 8003574:	6018      	str	r0, [r3, #0]
 8003576:	b108      	cbz	r0, 800357c <__lshift+0x70>
 8003578:	f109 0502 	add.w	r5, r9, #2
 800357c:	3d01      	subs	r5, #1
 800357e:	4638      	mov	r0, r7
 8003580:	f8c8 5010 	str.w	r5, [r8, #16]
 8003584:	4621      	mov	r1, r4
 8003586:	f7ff fe3e 	bl	8003206 <_Bfree>
 800358a:	4640      	mov	r0, r8
 800358c:	e8bd 87f0 	ldmia.w	sp!, {r4, r5, r6, r7, r8, r9, sl, pc}
 8003590:	3101      	adds	r1, #1
 8003592:	005b      	lsls	r3, r3, #1
 8003594:	e7c8      	b.n	8003528 <__lshift+0x1c>
 8003596:	f843 1022 	str.w	r1, [r3, r2, lsl #2]
 800359a:	3201      	adds	r2, #1
 800359c:	e7ce      	b.n	800353c <__lshift+0x30>
 800359e:	3b04      	subs	r3, #4
 80035a0:	f851 2b04 	ldr.w	r2, [r1], #4
 80035a4:	458e      	cmp	lr, r1
 80035a6:	f843 2f04 	str.w	r2, [r3, #4]!
 80035aa:	d8f9      	bhi.n	80035a0 <__lshift+0x94>
 80035ac:	e7e6      	b.n	800357c <__lshift+0x70>

080035ae <__mcmp>:
 80035ae:	6903      	ldr	r3, [r0, #16]
 80035b0:	690a      	ldr	r2, [r1, #16]
 80035b2:	b530      	push	{r4, r5, lr}
 80035b4:	1a9b      	subs	r3, r3, r2
 80035b6:	d10c      	bne.n	80035d2 <__mcmp+0x24>
 80035b8:	0092      	lsls	r2, r2, #2
 80035ba:	3014      	adds	r0, #20
 80035bc:	3114      	adds	r1, #20
 80035be:	1884      	adds	r4, r0, r2
 80035c0:	4411      	add	r1, r2
 80035c2:	f854 5d04 	ldr.w	r5, [r4, #-4]!
 80035c6:	f851 2d04 	ldr.w	r2, [r1, #-4]!
 80035ca:	4295      	cmp	r5, r2
 80035cc:	d003      	beq.n	80035d6 <__mcmp+0x28>
 80035ce:	d305      	bcc.n	80035dc <__mcmp+0x2e>
 80035d0:	2301      	movs	r3, #1
 80035d2:	4618      	mov	r0, r3
 80035d4:	bd30      	pop	{r4, r5, pc}
 80035d6:	42a0      	cmp	r0, r4
 80035d8:	d3f3      	bcc.n	80035c2 <__mcmp+0x14>
 80035da:	e7fa      	b.n	80035d2 <__mcmp+0x24>
 80035dc:	f04f 33ff 	mov.w	r3, #4294967295	; 0xffffffff
 80035e0:	e7f7      	b.n	80035d2 <__mcmp+0x24>

080035e2 <__mdiff>:
 80035e2:	e92d 47f0 	stmdb	sp!, {r4, r5, r6, r7, r8, r9, sl, lr}
 80035e6:	460d      	mov	r5, r1
 80035e8:	4607      	mov	r7, r0
 80035ea:	4611      	mov	r1, r2
 80035ec:	4628      	mov	r0, r5
 80035ee:	4614      	mov	r4, r2
 80035f0:	f7ff ffdd 	bl	80035ae <__mcmp>
 80035f4:	1e06      	subs	r6, r0, #0
 80035f6:	d108      	bne.n	800360a <__mdiff+0x28>
 80035f8:	4631      	mov	r1, r6
 80035fa:	4638      	mov	r0, r7
 80035fc:	f7ff fdcf 	bl	800319e <_Balloc>
 8003600:	2301      	movs	r3, #1
 8003602:	6146      	str	r6, [r0, #20]
 8003604:	6103      	str	r3, [r0, #16]
 8003606:	e8bd 87f0 	ldmia.w	sp!, {r4, r5, r6, r7, r8, r9, sl, pc}
 800360a:	bfa4      	itt	ge
 800360c:	4623      	movge	r3, r4
 800360e:	462c      	movge	r4, r5
 8003610:	4638      	mov	r0, r7
 8003612:	6861      	ldr	r1, [r4, #4]
 8003614:	bfa6      	itte	ge
 8003616:	461d      	movge	r5, r3
 8003618:	2600      	movge	r6, #0
 800361a:	2601      	movlt	r6, #1
 800361c:	f7ff fdbf 	bl	800319e <_Balloc>
 8003620:	f04f 0c00 	mov.w	ip, #0
 8003624:	60c6      	str	r6, [r0, #12]
 8003626:	692b      	ldr	r3, [r5, #16]
 8003628:	6926      	ldr	r6, [r4, #16]
 800362a:	f104 0214 	add.w	r2, r4, #20
 800362e:	f105 0914 	add.w	r9, r5, #20
 8003632:	eb02 0786 	add.w	r7, r2, r6, lsl #2
 8003636:	eb09 0883 	add.w	r8, r9, r3, lsl #2
 800363a:	f100 0114 	add.w	r1, r0, #20
 800363e:	f852 ab04 	ldr.w	sl, [r2], #4
 8003642:	f859 5b04 	ldr.w	r5, [r9], #4
 8003646:	fa1f f38a 	uxth.w	r3, sl
 800364a:	4463      	add	r3, ip
 800364c:	b2ac      	uxth	r4, r5
 800364e:	1b1b      	subs	r3, r3, r4
 8003650:	0c2c      	lsrs	r4, r5, #16
 8003652:	ebc4 441a 	rsb	r4, r4, sl, lsr #16
 8003656:	eb04 4423 	add.w	r4, r4, r3, asr #16
 800365a:	b29b      	uxth	r3, r3
 800365c:	ea4f 4c24 	mov.w	ip, r4, asr #16
 8003660:	45c8      	cmp	r8, r9
 8003662:	ea43 4404 	orr.w	r4, r3, r4, lsl #16
 8003666:	4696      	mov	lr, r2
 8003668:	f841 4b04 	str.w	r4, [r1], #4
 800366c:	d8e7      	bhi.n	800363e <__mdiff+0x5c>
 800366e:	45be      	cmp	lr, r7
 8003670:	d305      	bcc.n	800367e <__mdiff+0x9c>
 8003672:	f851 3d04 	ldr.w	r3, [r1, #-4]!
 8003676:	b18b      	cbz	r3, 800369c <__mdiff+0xba>
 8003678:	6106      	str	r6, [r0, #16]
 800367a:	e8bd 87f0 	ldmia.w	sp!, {r4, r5, r6, r7, r8, r9, sl, pc}
 800367e:	f85e 4b04 	ldr.w	r4, [lr], #4
 8003682:	b2a2      	uxth	r2, r4
 8003684:	4462      	add	r2, ip
 8003686:	1413      	asrs	r3, r2, #16
 8003688:	eb03 4314 	add.w	r3, r3, r4, lsr #16
 800368c:	b292      	uxth	r2, r2
 800368e:	ea42 4203 	orr.w	r2, r2, r3, lsl #16
 8003692:	ea4f 4c23 	mov.w	ip, r3, asr #16
 8003696:	f841 2b04 	str.w	r2, [r1], #4
 800369a:	e7e8      	b.n	800366e <__mdiff+0x8c>
 800369c:	3e01      	subs	r6, #1
 800369e:	e7e8      	b.n	8003672 <__mdiff+0x90>

080036a0 <__d2b>:
 80036a0:	e92d 41f3 	stmdb	sp!, {r0, r1, r4, r5, r6, r7, r8, lr}
 80036a4:	461c      	mov	r4, r3
 80036a6:	2101      	movs	r1, #1
 80036a8:	4690      	mov	r8, r2
 80036aa:	9e08      	ldr	r6, [sp, #32]
 80036ac:	9d09      	ldr	r5, [sp, #36]	; 0x24
 80036ae:	f7ff fd76 	bl	800319e <_Balloc>
 80036b2:	f3c4 0213 	ubfx	r2, r4, #0, #20
 80036b6:	f3c4 540a 	ubfx	r4, r4, #20, #11
 80036ba:	4607      	mov	r7, r0
 80036bc:	bb34      	cbnz	r4, 800370c <__d2b+0x6c>
 80036be:	9201      	str	r2, [sp, #4]
 80036c0:	f1b8 0f00 	cmp.w	r8, #0
 80036c4:	d027      	beq.n	8003716 <__d2b+0x76>
 80036c6:	a802      	add	r0, sp, #8
 80036c8:	f840 8d08 	str.w	r8, [r0, #-8]!
 80036cc:	f7ff fe0c 	bl	80032e8 <__lo0bits>
 80036d0:	9900      	ldr	r1, [sp, #0]
 80036d2:	b1f0      	cbz	r0, 8003712 <__d2b+0x72>
 80036d4:	9a01      	ldr	r2, [sp, #4]
 80036d6:	f1c0 0320 	rsb	r3, r0, #32
 80036da:	fa02 f303 	lsl.w	r3, r2, r3
 80036de:	430b      	orrs	r3, r1
 80036e0:	40c2      	lsrs	r2, r0
 80036e2:	617b      	str	r3, [r7, #20]
 80036e4:	9201      	str	r2, [sp, #4]
 80036e6:	9b01      	ldr	r3, [sp, #4]
 80036e8:	2b00      	cmp	r3, #0
 80036ea:	bf14      	ite	ne
 80036ec:	2102      	movne	r1, #2
 80036ee:	2101      	moveq	r1, #1
 80036f0:	61bb      	str	r3, [r7, #24]
 80036f2:	6139      	str	r1, [r7, #16]
 80036f4:	b1c4      	cbz	r4, 8003728 <__d2b+0x88>
 80036f6:	f2a4 4433 	subw	r4, r4, #1075	; 0x433
 80036fa:	4404      	add	r4, r0
 80036fc:	6034      	str	r4, [r6, #0]
 80036fe:	f1c0 0035 	rsb	r0, r0, #53	; 0x35
 8003702:	6028      	str	r0, [r5, #0]
 8003704:	4638      	mov	r0, r7
 8003706:	b002      	add	sp, #8
 8003708:	e8bd 81f0 	ldmia.w	sp!, {r4, r5, r6, r7, r8, pc}
 800370c:	f442 1280 	orr.w	r2, r2, #1048576	; 0x100000
 8003710:	e7d5      	b.n	80036be <__d2b+0x1e>
 8003712:	6179      	str	r1, [r7, #20]
 8003714:	e7e7      	b.n	80036e6 <__d2b+0x46>
 8003716:	a801      	add	r0, sp, #4
 8003718:	f7ff fde6 	bl	80032e8 <__lo0bits>
 800371c:	2101      	movs	r1, #1
 800371e:	9b01      	ldr	r3, [sp, #4]
 8003720:	6139      	str	r1, [r7, #16]
 8003722:	617b      	str	r3, [r7, #20]
 8003724:	3020      	adds	r0, #32
 8003726:	e7e5      	b.n	80036f4 <__d2b+0x54>
 8003728:	f2a0 4032 	subw	r0, r0, #1074	; 0x432
 800372c:	eb07 0381 	add.w	r3, r7, r1, lsl #2
 8003730:	6030      	str	r0, [r6, #0]
 8003732:	6918      	ldr	r0, [r3, #16]
 8003734:	f7ff fdb9 	bl	80032aa <__hi0bits>
 8003738:	ebc0 1041 	rsb	r0, r0, r1, lsl #5
 800373c:	e7e1      	b.n	8003702 <__d2b+0x62>

0800373e <_calloc_r>:
 800373e:	b538      	push	{r3, r4, r5, lr}
 8003740:	fb02 f401 	mul.w	r4, r2, r1
 8003744:	4621      	mov	r1, r4
 8003746:	f000 f855 	bl	80037f4 <_malloc_r>
 800374a:	4605      	mov	r5, r0
 800374c:	b118      	cbz	r0, 8003756 <_calloc_r+0x18>
 800374e:	4622      	mov	r2, r4
 8003750:	2100      	movs	r1, #0
 8003752:	f7fe f9f5 	bl	8001b40 <memset>
 8003756:	4628      	mov	r0, r5
 8003758:	bd38      	pop	{r3, r4, r5, pc}
	...

0800375c <_free_r>:
 800375c:	b538      	push	{r3, r4, r5, lr}
 800375e:	4605      	mov	r5, r0
 8003760:	2900      	cmp	r1, #0
 8003762:	d043      	beq.n	80037ec <_free_r+0x90>
 8003764:	f851 3c04 	ldr.w	r3, [r1, #-4]
 8003768:	1f0c      	subs	r4, r1, #4
 800376a:	2b00      	cmp	r3, #0
 800376c:	bfb8      	it	lt
 800376e:	18e4      	addlt	r4, r4, r3
 8003770:	f000 fa2a 	bl	8003bc8 <__malloc_lock>
 8003774:	4a1e      	ldr	r2, [pc, #120]	; (80037f0 <_free_r+0x94>)
 8003776:	6813      	ldr	r3, [r2, #0]
 8003778:	4610      	mov	r0, r2
 800377a:	b933      	cbnz	r3, 800378a <_free_r+0x2e>
 800377c:	6063      	str	r3, [r4, #4]
 800377e:	6014      	str	r4, [r2, #0]
 8003780:	4628      	mov	r0, r5
 8003782:	e8bd 4038 	ldmia.w	sp!, {r3, r4, r5, lr}
 8003786:	f000 ba20 	b.w	8003bca <__malloc_unlock>
 800378a:	42a3      	cmp	r3, r4
 800378c:	d90b      	bls.n	80037a6 <_free_r+0x4a>
 800378e:	6821      	ldr	r1, [r4, #0]
 8003790:	1862      	adds	r2, r4, r1
 8003792:	4293      	cmp	r3, r2
 8003794:	bf01      	itttt	eq
 8003796:	681a      	ldreq	r2, [r3, #0]
 8003798:	685b      	ldreq	r3, [r3, #4]
 800379a:	1852      	addeq	r2, r2, r1
 800379c:	6022      	streq	r2, [r4, #0]
 800379e:	6063      	str	r3, [r4, #4]
 80037a0:	6004      	str	r4, [r0, #0]
 80037a2:	e7ed      	b.n	8003780 <_free_r+0x24>
 80037a4:	4613      	mov	r3, r2
 80037a6:	685a      	ldr	r2, [r3, #4]
 80037a8:	b10a      	cbz	r2, 80037ae <_free_r+0x52>
 80037aa:	42a2      	cmp	r2, r4
 80037ac:	d9fa      	bls.n	80037a4 <_free_r+0x48>
 80037ae:	6819      	ldr	r1, [r3, #0]
 80037b0:	1858      	adds	r0, r3, r1
 80037b2:	42a0      	cmp	r0, r4
 80037b4:	d10b      	bne.n	80037ce <_free_r+0x72>
 80037b6:	6820      	ldr	r0, [r4, #0]
 80037b8:	4401      	add	r1, r0
 80037ba:	1858      	adds	r0, r3, r1
 80037bc:	4282      	cmp	r2, r0
 80037be:	6019      	str	r1, [r3, #0]
 80037c0:	d1de      	bne.n	8003780 <_free_r+0x24>
 80037c2:	6810      	ldr	r0, [r2, #0]
 80037c4:	6852      	ldr	r2, [r2, #4]
 80037c6:	4401      	add	r1, r0
 80037c8:	6019      	str	r1, [r3, #0]
 80037ca:	605a      	str	r2, [r3, #4]
 80037cc:	e7d8      	b.n	8003780 <_free_r+0x24>
 80037ce:	d902      	bls.n	80037d6 <_free_r+0x7a>
 80037d0:	230c      	movs	r3, #12
 80037d2:	602b      	str	r3, [r5, #0]
 80037d4:	e7d4      	b.n	8003780 <_free_r+0x24>
 80037d6:	6820      	ldr	r0, [r4, #0]
 80037d8:	1821      	adds	r1, r4, r0
 80037da:	428a      	cmp	r2, r1
 80037dc:	bf01      	itttt	eq
 80037de:	6811      	ldreq	r1, [r2, #0]
 80037e0:	6852      	ldreq	r2, [r2, #4]
 80037e2:	1809      	addeq	r1, r1, r0
 80037e4:	6021      	streq	r1, [r4, #0]
 80037e6:	6062      	str	r2, [r4, #4]
 80037e8:	605c      	str	r4, [r3, #4]
 80037ea:	e7c9      	b.n	8003780 <_free_r+0x24>
 80037ec:	bd38      	pop	{r3, r4, r5, pc}
 80037ee:	bf00      	nop
 80037f0:	200001fc 	.word	0x200001fc

080037f4 <_malloc_r>:
 80037f4:	b570      	push	{r4, r5, r6, lr}
 80037f6:	1ccd      	adds	r5, r1, #3
 80037f8:	f025 0503 	bic.w	r5, r5, #3
 80037fc:	3508      	adds	r5, #8
 80037fe:	2d0c      	cmp	r5, #12
 8003800:	bf38      	it	cc
 8003802:	250c      	movcc	r5, #12
 8003804:	2d00      	cmp	r5, #0
 8003806:	4606      	mov	r6, r0
 8003808:	db01      	blt.n	800380e <_malloc_r+0x1a>
 800380a:	42a9      	cmp	r1, r5
 800380c:	d903      	bls.n	8003816 <_malloc_r+0x22>
 800380e:	230c      	movs	r3, #12
 8003810:	6033      	str	r3, [r6, #0]
 8003812:	2000      	movs	r0, #0
 8003814:	bd70      	pop	{r4, r5, r6, pc}
 8003816:	f000 f9d7 	bl	8003bc8 <__malloc_lock>
 800381a:	4a23      	ldr	r2, [pc, #140]	; (80038a8 <_malloc_r+0xb4>)
 800381c:	6814      	ldr	r4, [r2, #0]
 800381e:	4621      	mov	r1, r4
 8003820:	b991      	cbnz	r1, 8003848 <_malloc_r+0x54>
 8003822:	4c22      	ldr	r4, [pc, #136]	; (80038ac <_malloc_r+0xb8>)
 8003824:	6823      	ldr	r3, [r4, #0]
 8003826:	b91b      	cbnz	r3, 8003830 <_malloc_r+0x3c>
 8003828:	4630      	mov	r0, r6
 800382a:	f000 f991 	bl	8003b50 <_sbrk_r>
 800382e:	6020      	str	r0, [r4, #0]
 8003830:	4629      	mov	r1, r5
 8003832:	4630      	mov	r0, r6
 8003834:	f000 f98c 	bl	8003b50 <_sbrk_r>
 8003838:	1c43      	adds	r3, r0, #1
 800383a:	d126      	bne.n	800388a <_malloc_r+0x96>
 800383c:	230c      	movs	r3, #12
 800383e:	4630      	mov	r0, r6
 8003840:	6033      	str	r3, [r6, #0]
 8003842:	f000 f9c2 	bl	8003bca <__malloc_unlock>
 8003846:	e7e4      	b.n	8003812 <_malloc_r+0x1e>
 8003848:	680b      	ldr	r3, [r1, #0]
 800384a:	1b5b      	subs	r3, r3, r5
 800384c:	d41a      	bmi.n	8003884 <_malloc_r+0x90>
 800384e:	2b0b      	cmp	r3, #11
 8003850:	d90f      	bls.n	8003872 <_malloc_r+0x7e>
 8003852:	600b      	str	r3, [r1, #0]
 8003854:	18cc      	adds	r4, r1, r3
 8003856:	50cd      	str	r5, [r1, r3]
 8003858:	4630      	mov	r0, r6
 800385a:	f000 f9b6 	bl	8003bca <__malloc_unlock>
 800385e:	f104 000b 	add.w	r0, r4, #11
 8003862:	1d23      	adds	r3, r4, #4
 8003864:	f020 0007 	bic.w	r0, r0, #7
 8003868:	1ac3      	subs	r3, r0, r3
 800386a:	d01b      	beq.n	80038a4 <_malloc_r+0xb0>
 800386c:	425a      	negs	r2, r3
 800386e:	50e2      	str	r2, [r4, r3]
 8003870:	bd70      	pop	{r4, r5, r6, pc}
 8003872:	428c      	cmp	r4, r1
 8003874:	bf0b      	itete	eq
 8003876:	6863      	ldreq	r3, [r4, #4]
 8003878:	684b      	ldrne	r3, [r1, #4]
 800387a:	6013      	streq	r3, [r2, #0]
 800387c:	6063      	strne	r3, [r4, #4]
 800387e:	bf18      	it	ne
 8003880:	460c      	movne	r4, r1
 8003882:	e7e9      	b.n	8003858 <_malloc_r+0x64>
 8003884:	460c      	mov	r4, r1
 8003886:	6849      	ldr	r1, [r1, #4]
 8003888:	e7ca      	b.n	8003820 <_malloc_r+0x2c>
 800388a:	1cc4      	adds	r4, r0, #3
 800388c:	f024 0403 	bic.w	r4, r4, #3
 8003890:	42a0      	cmp	r0, r4
 8003892:	d005      	beq.n	80038a0 <_malloc_r+0xac>
 8003894:	1a21      	subs	r1, r4, r0
 8003896:	4630      	mov	r0, r6
 8003898:	f000 f95a 	bl	8003b50 <_sbrk_r>
 800389c:	3001      	adds	r0, #1
 800389e:	d0cd      	beq.n	800383c <_malloc_r+0x48>
 80038a0:	6025      	str	r5, [r4, #0]
 80038a2:	e7d9      	b.n	8003858 <_malloc_r+0x64>
 80038a4:	bd70      	pop	{r4, r5, r6, pc}
 80038a6:	bf00      	nop
 80038a8:	200001fc 	.word	0x200001fc
 80038ac:	20000200 	.word	0x20000200

080038b0 <__ssputs_r>:
 80038b0:	e92d 47f0 	stmdb	sp!, {r4, r5, r6, r7, r8, r9, sl, lr}
 80038b4:	688e      	ldr	r6, [r1, #8]
 80038b6:	4682      	mov	sl, r0
 80038b8:	429e      	cmp	r6, r3
 80038ba:	460c      	mov	r4, r1
 80038bc:	4691      	mov	r9, r2
 80038be:	4698      	mov	r8, r3
 80038c0:	d835      	bhi.n	800392e <__ssputs_r+0x7e>
 80038c2:	898a      	ldrh	r2, [r1, #12]
 80038c4:	f412 6f90 	tst.w	r2, #1152	; 0x480
 80038c8:	d031      	beq.n	800392e <__ssputs_r+0x7e>
 80038ca:	2302      	movs	r3, #2
 80038cc:	6825      	ldr	r5, [r4, #0]
 80038ce:	6909      	ldr	r1, [r1, #16]
 80038d0:	1a6f      	subs	r7, r5, r1
 80038d2:	6965      	ldr	r5, [r4, #20]
 80038d4:	eb05 0545 	add.w	r5, r5, r5, lsl #1
 80038d8:	fb95 f5f3 	sdiv	r5, r5, r3
 80038dc:	f108 0301 	add.w	r3, r8, #1
 80038e0:	443b      	add	r3, r7
 80038e2:	429d      	cmp	r5, r3
 80038e4:	bf38      	it	cc
 80038e6:	461d      	movcc	r5, r3
 80038e8:	0553      	lsls	r3, r2, #21
 80038ea:	d531      	bpl.n	8003950 <__ssputs_r+0xa0>
 80038ec:	4629      	mov	r1, r5
 80038ee:	f7ff ff81 	bl	80037f4 <_malloc_r>
 80038f2:	4606      	mov	r6, r0
 80038f4:	b950      	cbnz	r0, 800390c <__ssputs_r+0x5c>
 80038f6:	230c      	movs	r3, #12
 80038f8:	f8ca 3000 	str.w	r3, [sl]
 80038fc:	89a3      	ldrh	r3, [r4, #12]
 80038fe:	f04f 30ff 	mov.w	r0, #4294967295	; 0xffffffff
 8003902:	f043 0340 	orr.w	r3, r3, #64	; 0x40
 8003906:	81a3      	strh	r3, [r4, #12]
 8003908:	e8bd 87f0 	ldmia.w	sp!, {r4, r5, r6, r7, r8, r9, sl, pc}
 800390c:	463a      	mov	r2, r7
 800390e:	6921      	ldr	r1, [r4, #16]
 8003910:	f7ff fc3a 	bl	8003188 <memcpy>
 8003914:	89a3      	ldrh	r3, [r4, #12]
 8003916:	f423 6390 	bic.w	r3, r3, #1152	; 0x480
 800391a:	f043 0380 	orr.w	r3, r3, #128	; 0x80
 800391e:	81a3      	strh	r3, [r4, #12]
 8003920:	6126      	str	r6, [r4, #16]
 8003922:	443e      	add	r6, r7
 8003924:	6026      	str	r6, [r4, #0]
 8003926:	4646      	mov	r6, r8
 8003928:	6165      	str	r5, [r4, #20]
 800392a:	1bed      	subs	r5, r5, r7
 800392c:	60a5      	str	r5, [r4, #8]
 800392e:	4546      	cmp	r6, r8
 8003930:	bf28      	it	cs
 8003932:	4646      	movcs	r6, r8
 8003934:	4649      	mov	r1, r9
 8003936:	4632      	mov	r2, r6
 8003938:	6820      	ldr	r0, [r4, #0]
 800393a:	f000 f92b 	bl	8003b94 <memmove>
 800393e:	68a3      	ldr	r3, [r4, #8]
 8003940:	2000      	movs	r0, #0
 8003942:	1b9b      	subs	r3, r3, r6
 8003944:	60a3      	str	r3, [r4, #8]
 8003946:	6823      	ldr	r3, [r4, #0]
 8003948:	441e      	add	r6, r3
 800394a:	6026      	str	r6, [r4, #0]
 800394c:	e8bd 87f0 	ldmia.w	sp!, {r4, r5, r6, r7, r8, r9, sl, pc}
 8003950:	462a      	mov	r2, r5
 8003952:	f000 f93b 	bl	8003bcc <_realloc_r>
 8003956:	4606      	mov	r6, r0
 8003958:	2800      	cmp	r0, #0
 800395a:	d1e1      	bne.n	8003920 <__ssputs_r+0x70>
 800395c:	6921      	ldr	r1, [r4, #16]
 800395e:	4650      	mov	r0, sl
 8003960:	f7ff fefc 	bl	800375c <_free_r>
 8003964:	e7c7      	b.n	80038f6 <__ssputs_r+0x46>
	...

08003968 <_svfiprintf_r>:
 8003968:	e92d 4ff0 	stmdb	sp!, {r4, r5, r6, r7, r8, r9, sl, fp, lr}
 800396c:	b09d      	sub	sp, #116	; 0x74
 800396e:	9303      	str	r3, [sp, #12]
 8003970:	898b      	ldrh	r3, [r1, #12]
 8003972:	4680      	mov	r8, r0
 8003974:	061c      	lsls	r4, r3, #24
 8003976:	460d      	mov	r5, r1
 8003978:	4616      	mov	r6, r2
 800397a:	d50f      	bpl.n	800399c <_svfiprintf_r+0x34>
 800397c:	690b      	ldr	r3, [r1, #16]
 800397e:	b96b      	cbnz	r3, 800399c <_svfiprintf_r+0x34>
 8003980:	2140      	movs	r1, #64	; 0x40
 8003982:	f7ff ff37 	bl	80037f4 <_malloc_r>
 8003986:	6028      	str	r0, [r5, #0]
 8003988:	6128      	str	r0, [r5, #16]
 800398a:	b928      	cbnz	r0, 8003998 <_svfiprintf_r+0x30>
 800398c:	230c      	movs	r3, #12
 800398e:	f8c8 3000 	str.w	r3, [r8]
 8003992:	f04f 30ff 	mov.w	r0, #4294967295	; 0xffffffff
 8003996:	e0c4      	b.n	8003b22 <_svfiprintf_r+0x1ba>
 8003998:	2340      	movs	r3, #64	; 0x40
 800399a:	616b      	str	r3, [r5, #20]
 800399c:	2300      	movs	r3, #0
 800399e:	9309      	str	r3, [sp, #36]	; 0x24
 80039a0:	2320      	movs	r3, #32
 80039a2:	f88d 3029 	strb.w	r3, [sp, #41]	; 0x29
 80039a6:	2330      	movs	r3, #48	; 0x30
 80039a8:	f04f 0b01 	mov.w	fp, #1
 80039ac:	f88d 302a 	strb.w	r3, [sp, #42]	; 0x2a
 80039b0:	4637      	mov	r7, r6
 80039b2:	463c      	mov	r4, r7
 80039b4:	f814 3b01 	ldrb.w	r3, [r4], #1
 80039b8:	2b00      	cmp	r3, #0
 80039ba:	d13c      	bne.n	8003a36 <_svfiprintf_r+0xce>
 80039bc:	ebb7 0a06 	subs.w	sl, r7, r6
 80039c0:	d00b      	beq.n	80039da <_svfiprintf_r+0x72>
 80039c2:	4653      	mov	r3, sl
 80039c4:	4632      	mov	r2, r6
 80039c6:	4629      	mov	r1, r5
 80039c8:	4640      	mov	r0, r8
 80039ca:	f7ff ff71 	bl	80038b0 <__ssputs_r>
 80039ce:	3001      	adds	r0, #1
 80039d0:	f000 80a2 	beq.w	8003b18 <_svfiprintf_r+0x1b0>
 80039d4:	9b09      	ldr	r3, [sp, #36]	; 0x24
 80039d6:	4453      	add	r3, sl
 80039d8:	9309      	str	r3, [sp, #36]	; 0x24
 80039da:	783b      	ldrb	r3, [r7, #0]
 80039dc:	2b00      	cmp	r3, #0
 80039de:	f000 809b 	beq.w	8003b18 <_svfiprintf_r+0x1b0>
 80039e2:	2300      	movs	r3, #0
 80039e4:	f04f 32ff 	mov.w	r2, #4294967295	; 0xffffffff
 80039e8:	9304      	str	r3, [sp, #16]
 80039ea:	9307      	str	r3, [sp, #28]
 80039ec:	9205      	str	r2, [sp, #20]
 80039ee:	9306      	str	r3, [sp, #24]
 80039f0:	f88d 3053 	strb.w	r3, [sp, #83]	; 0x53
 80039f4:	931a      	str	r3, [sp, #104]	; 0x68
 80039f6:	2205      	movs	r2, #5
 80039f8:	7821      	ldrb	r1, [r4, #0]
 80039fa:	4850      	ldr	r0, [pc, #320]	; (8003b3c <_svfiprintf_r+0x1d4>)
 80039fc:	f7ff fbb6 	bl	800316c <memchr>
 8003a00:	1c67      	adds	r7, r4, #1
 8003a02:	9b04      	ldr	r3, [sp, #16]
 8003a04:	b9d8      	cbnz	r0, 8003a3e <_svfiprintf_r+0xd6>
 8003a06:	06d9      	lsls	r1, r3, #27
 8003a08:	bf44      	itt	mi
 8003a0a:	2220      	movmi	r2, #32
 8003a0c:	f88d 2053 	strbmi.w	r2, [sp, #83]	; 0x53
 8003a10:	071a      	lsls	r2, r3, #28
 8003a12:	bf44      	itt	mi
 8003a14:	222b      	movmi	r2, #43	; 0x2b
 8003a16:	f88d 2053 	strbmi.w	r2, [sp, #83]	; 0x53
 8003a1a:	7822      	ldrb	r2, [r4, #0]
 8003a1c:	2a2a      	cmp	r2, #42	; 0x2a
 8003a1e:	d016      	beq.n	8003a4e <_svfiprintf_r+0xe6>
 8003a20:	2100      	movs	r1, #0
 8003a22:	200a      	movs	r0, #10
 8003a24:	9a07      	ldr	r2, [sp, #28]
 8003a26:	4627      	mov	r7, r4
 8003a28:	783b      	ldrb	r3, [r7, #0]
 8003a2a:	3401      	adds	r4, #1
 8003a2c:	3b30      	subs	r3, #48	; 0x30
 8003a2e:	2b09      	cmp	r3, #9
 8003a30:	d950      	bls.n	8003ad4 <_svfiprintf_r+0x16c>
 8003a32:	b1c9      	cbz	r1, 8003a68 <_svfiprintf_r+0x100>
 8003a34:	e011      	b.n	8003a5a <_svfiprintf_r+0xf2>
 8003a36:	2b25      	cmp	r3, #37	; 0x25
 8003a38:	d0c0      	beq.n	80039bc <_svfiprintf_r+0x54>
 8003a3a:	4627      	mov	r7, r4
 8003a3c:	e7b9      	b.n	80039b2 <_svfiprintf_r+0x4a>
 8003a3e:	4a3f      	ldr	r2, [pc, #252]	; (8003b3c <_svfiprintf_r+0x1d4>)
 8003a40:	463c      	mov	r4, r7
 8003a42:	1a80      	subs	r0, r0, r2
 8003a44:	fa0b f000 	lsl.w	r0, fp, r0
 8003a48:	4318      	orrs	r0, r3
 8003a4a:	9004      	str	r0, [sp, #16]
 8003a4c:	e7d3      	b.n	80039f6 <_svfiprintf_r+0x8e>
 8003a4e:	9a03      	ldr	r2, [sp, #12]
 8003a50:	1d11      	adds	r1, r2, #4
 8003a52:	6812      	ldr	r2, [r2, #0]
 8003a54:	9103      	str	r1, [sp, #12]
 8003a56:	2a00      	cmp	r2, #0
 8003a58:	db01      	blt.n	8003a5e <_svfiprintf_r+0xf6>
 8003a5a:	9207      	str	r2, [sp, #28]
 8003a5c:	e004      	b.n	8003a68 <_svfiprintf_r+0x100>
 8003a5e:	4252      	negs	r2, r2
 8003a60:	f043 0302 	orr.w	r3, r3, #2
 8003a64:	9207      	str	r2, [sp, #28]
 8003a66:	9304      	str	r3, [sp, #16]
 8003a68:	783b      	ldrb	r3, [r7, #0]
 8003a6a:	2b2e      	cmp	r3, #46	; 0x2e
 8003a6c:	d10d      	bne.n	8003a8a <_svfiprintf_r+0x122>
 8003a6e:	787b      	ldrb	r3, [r7, #1]
 8003a70:	1c79      	adds	r1, r7, #1
 8003a72:	2b2a      	cmp	r3, #42	; 0x2a
 8003a74:	d132      	bne.n	8003adc <_svfiprintf_r+0x174>
 8003a76:	9b03      	ldr	r3, [sp, #12]
 8003a78:	3702      	adds	r7, #2
 8003a7a:	1d1a      	adds	r2, r3, #4
 8003a7c:	681b      	ldr	r3, [r3, #0]
 8003a7e:	9203      	str	r2, [sp, #12]
 8003a80:	2b00      	cmp	r3, #0
 8003a82:	bfb8      	it	lt
 8003a84:	f04f 33ff 	movlt.w	r3, #4294967295	; 0xffffffff
 8003a88:	9305      	str	r3, [sp, #20]
 8003a8a:	4c2d      	ldr	r4, [pc, #180]	; (8003b40 <_svfiprintf_r+0x1d8>)
 8003a8c:	2203      	movs	r2, #3
 8003a8e:	7839      	ldrb	r1, [r7, #0]
 8003a90:	4620      	mov	r0, r4
 8003a92:	f7ff fb6b 	bl	800316c <memchr>
 8003a96:	b138      	cbz	r0, 8003aa8 <_svfiprintf_r+0x140>
 8003a98:	2340      	movs	r3, #64	; 0x40
 8003a9a:	1b00      	subs	r0, r0, r4
 8003a9c:	fa03 f000 	lsl.w	r0, r3, r0
 8003aa0:	9b04      	ldr	r3, [sp, #16]
 8003aa2:	3701      	adds	r7, #1
 8003aa4:	4303      	orrs	r3, r0
 8003aa6:	9304      	str	r3, [sp, #16]
 8003aa8:	7839      	ldrb	r1, [r7, #0]
 8003aaa:	2206      	movs	r2, #6
 8003aac:	4825      	ldr	r0, [pc, #148]	; (8003b44 <_svfiprintf_r+0x1dc>)
 8003aae:	1c7e      	adds	r6, r7, #1
 8003ab0:	f88d 1028 	strb.w	r1, [sp, #40]	; 0x28
 8003ab4:	f7ff fb5a 	bl	800316c <memchr>
 8003ab8:	2800      	cmp	r0, #0
 8003aba:	d035      	beq.n	8003b28 <_svfiprintf_r+0x1c0>
 8003abc:	4b22      	ldr	r3, [pc, #136]	; (8003b48 <_svfiprintf_r+0x1e0>)
 8003abe:	b9fb      	cbnz	r3, 8003b00 <_svfiprintf_r+0x198>
 8003ac0:	9b03      	ldr	r3, [sp, #12]
 8003ac2:	3307      	adds	r3, #7
 8003ac4:	f023 0307 	bic.w	r3, r3, #7
 8003ac8:	3308      	adds	r3, #8
 8003aca:	9303      	str	r3, [sp, #12]
 8003acc:	9b09      	ldr	r3, [sp, #36]	; 0x24
 8003ace:	444b      	add	r3, r9
 8003ad0:	9309      	str	r3, [sp, #36]	; 0x24
 8003ad2:	e76d      	b.n	80039b0 <_svfiprintf_r+0x48>
 8003ad4:	fb00 3202 	mla	r2, r0, r2, r3
 8003ad8:	2101      	movs	r1, #1
 8003ada:	e7a4      	b.n	8003a26 <_svfiprintf_r+0xbe>
 8003adc:	2300      	movs	r3, #0
 8003ade:	240a      	movs	r4, #10
 8003ae0:	4618      	mov	r0, r3
 8003ae2:	9305      	str	r3, [sp, #20]
 8003ae4:	460f      	mov	r7, r1
 8003ae6:	783a      	ldrb	r2, [r7, #0]
 8003ae8:	3101      	adds	r1, #1
 8003aea:	3a30      	subs	r2, #48	; 0x30
 8003aec:	2a09      	cmp	r2, #9
 8003aee:	d903      	bls.n	8003af8 <_svfiprintf_r+0x190>
 8003af0:	2b00      	cmp	r3, #0
 8003af2:	d0ca      	beq.n	8003a8a <_svfiprintf_r+0x122>
 8003af4:	9005      	str	r0, [sp, #20]
 8003af6:	e7c8      	b.n	8003a8a <_svfiprintf_r+0x122>
 8003af8:	fb04 2000 	mla	r0, r4, r0, r2
 8003afc:	2301      	movs	r3, #1
 8003afe:	e7f1      	b.n	8003ae4 <_svfiprintf_r+0x17c>
 8003b00:	ab03      	add	r3, sp, #12
 8003b02:	9300      	str	r3, [sp, #0]
 8003b04:	462a      	mov	r2, r5
 8003b06:	4b11      	ldr	r3, [pc, #68]	; (8003b4c <_svfiprintf_r+0x1e4>)
 8003b08:	a904      	add	r1, sp, #16
 8003b0a:	4640      	mov	r0, r8
 8003b0c:	f7fe f8b2 	bl	8001c74 <_printf_float>
 8003b10:	f1b0 3fff 	cmp.w	r0, #4294967295	; 0xffffffff
 8003b14:	4681      	mov	r9, r0
 8003b16:	d1d9      	bne.n	8003acc <_svfiprintf_r+0x164>
 8003b18:	89ab      	ldrh	r3, [r5, #12]
 8003b1a:	065b      	lsls	r3, r3, #25
 8003b1c:	f53f af39 	bmi.w	8003992 <_svfiprintf_r+0x2a>
 8003b20:	9809      	ldr	r0, [sp, #36]	; 0x24
 8003b22:	b01d      	add	sp, #116	; 0x74
 8003b24:	e8bd 8ff0 	ldmia.w	sp!, {r4, r5, r6, r7, r8, r9, sl, fp, pc}
 8003b28:	ab03      	add	r3, sp, #12
 8003b2a:	9300      	str	r3, [sp, #0]
 8003b2c:	462a      	mov	r2, r5
 8003b2e:	4b07      	ldr	r3, [pc, #28]	; (8003b4c <_svfiprintf_r+0x1e4>)
 8003b30:	a904      	add	r1, sp, #16
 8003b32:	4640      	mov	r0, r8
 8003b34:	f7fe fb4e 	bl	80021d4 <_printf_i>
 8003b38:	e7ea      	b.n	8003b10 <_svfiprintf_r+0x1a8>
 8003b3a:	bf00      	nop
 8003b3c:	08003e04 	.word	0x08003e04
 8003b40:	08003e0a 	.word	0x08003e0a
 8003b44:	08003e0e 	.word	0x08003e0e
 8003b48:	08001c75 	.word	0x08001c75
 8003b4c:	080038b1 	.word	0x080038b1

08003b50 <_sbrk_r>:
 8003b50:	b538      	push	{r3, r4, r5, lr}
 8003b52:	2300      	movs	r3, #0
 8003b54:	4c05      	ldr	r4, [pc, #20]	; (8003b6c <_sbrk_r+0x1c>)
 8003b56:	4605      	mov	r5, r0
 8003b58:	4608      	mov	r0, r1
 8003b5a:	6023      	str	r3, [r4, #0]
 8003b5c:	f000 f872 	bl	8003c44 <_sbrk>
 8003b60:	1c43      	adds	r3, r0, #1
 8003b62:	d102      	bne.n	8003b6a <_sbrk_r+0x1a>
 8003b64:	6823      	ldr	r3, [r4, #0]
 8003b66:	b103      	cbz	r3, 8003b6a <_sbrk_r+0x1a>
 8003b68:	602b      	str	r3, [r5, #0]
 8003b6a:	bd38      	pop	{r3, r4, r5, pc}
 8003b6c:	2000024c 	.word	0x2000024c

08003b70 <__ascii_mbtowc>:
 8003b70:	b082      	sub	sp, #8
 8003b72:	b901      	cbnz	r1, 8003b76 <__ascii_mbtowc+0x6>
 8003b74:	a901      	add	r1, sp, #4
 8003b76:	b142      	cbz	r2, 8003b8a <__ascii_mbtowc+0x1a>
 8003b78:	b14b      	cbz	r3, 8003b8e <__ascii_mbtowc+0x1e>
 8003b7a:	7813      	ldrb	r3, [r2, #0]
 8003b7c:	600b      	str	r3, [r1, #0]
 8003b7e:	7812      	ldrb	r2, [r2, #0]
 8003b80:	1c10      	adds	r0, r2, #0
 8003b82:	bf18      	it	ne
 8003b84:	2001      	movne	r0, #1
 8003b86:	b002      	add	sp, #8
 8003b88:	4770      	bx	lr
 8003b8a:	4610      	mov	r0, r2
 8003b8c:	e7fb      	b.n	8003b86 <__ascii_mbtowc+0x16>
 8003b8e:	f06f 0001 	mvn.w	r0, #1
 8003b92:	e7f8      	b.n	8003b86 <__ascii_mbtowc+0x16>

08003b94 <memmove>:
 8003b94:	4288      	cmp	r0, r1
 8003b96:	b510      	push	{r4, lr}
 8003b98:	eb01 0302 	add.w	r3, r1, r2
 8003b9c:	d803      	bhi.n	8003ba6 <memmove+0x12>
 8003b9e:	1e42      	subs	r2, r0, #1
 8003ba0:	4299      	cmp	r1, r3
 8003ba2:	d10c      	bne.n	8003bbe <memmove+0x2a>
 8003ba4:	bd10      	pop	{r4, pc}
 8003ba6:	4298      	cmp	r0, r3
 8003ba8:	d2f9      	bcs.n	8003b9e <memmove+0xa>
 8003baa:	1881      	adds	r1, r0, r2
 8003bac:	1ad2      	subs	r2, r2, r3
 8003bae:	42d3      	cmn	r3, r2
 8003bb0:	d100      	bne.n	8003bb4 <memmove+0x20>
 8003bb2:	bd10      	pop	{r4, pc}
 8003bb4:	f813 4d01 	ldrb.w	r4, [r3, #-1]!
 8003bb8:	f801 4d01 	strb.w	r4, [r1, #-1]!
 8003bbc:	e7f7      	b.n	8003bae <memmove+0x1a>
 8003bbe:	f811 4b01 	ldrb.w	r4, [r1], #1
 8003bc2:	f802 4f01 	strb.w	r4, [r2, #1]!
 8003bc6:	e7eb      	b.n	8003ba0 <memmove+0xc>

08003bc8 <__malloc_lock>:
 8003bc8:	4770      	bx	lr

08003bca <__malloc_unlock>:
 8003bca:	4770      	bx	lr

08003bcc <_realloc_r>:
 8003bcc:	b5f8      	push	{r3, r4, r5, r6, r7, lr}
 8003bce:	4607      	mov	r7, r0
 8003bd0:	4614      	mov	r4, r2
 8003bd2:	460e      	mov	r6, r1
 8003bd4:	b921      	cbnz	r1, 8003be0 <_realloc_r+0x14>
 8003bd6:	4611      	mov	r1, r2
 8003bd8:	e8bd 40f8 	ldmia.w	sp!, {r3, r4, r5, r6, r7, lr}
 8003bdc:	f7ff be0a 	b.w	80037f4 <_malloc_r>
 8003be0:	b922      	cbnz	r2, 8003bec <_realloc_r+0x20>
 8003be2:	f7ff fdbb 	bl	800375c <_free_r>
 8003be6:	4625      	mov	r5, r4
 8003be8:	4628      	mov	r0, r5
 8003bea:	bdf8      	pop	{r3, r4, r5, r6, r7, pc}
 8003bec:	f000 f821 	bl	8003c32 <_malloc_usable_size_r>
 8003bf0:	4284      	cmp	r4, r0
 8003bf2:	d90f      	bls.n	8003c14 <_realloc_r+0x48>
 8003bf4:	4621      	mov	r1, r4
 8003bf6:	4638      	mov	r0, r7
 8003bf8:	f7ff fdfc 	bl	80037f4 <_malloc_r>
 8003bfc:	4605      	mov	r5, r0
 8003bfe:	2800      	cmp	r0, #0
 8003c00:	d0f2      	beq.n	8003be8 <_realloc_r+0x1c>
 8003c02:	4631      	mov	r1, r6
 8003c04:	4622      	mov	r2, r4
 8003c06:	f7ff fabf 	bl	8003188 <memcpy>
 8003c0a:	4631      	mov	r1, r6
 8003c0c:	4638      	mov	r0, r7
 8003c0e:	f7ff fda5 	bl	800375c <_free_r>
 8003c12:	e7e9      	b.n	8003be8 <_realloc_r+0x1c>
 8003c14:	4635      	mov	r5, r6
 8003c16:	e7e7      	b.n	8003be8 <_realloc_r+0x1c>

08003c18 <__ascii_wctomb>:
 8003c18:	b149      	cbz	r1, 8003c2e <__ascii_wctomb+0x16>
 8003c1a:	2aff      	cmp	r2, #255	; 0xff
 8003c1c:	bf8b      	itete	hi
 8003c1e:	238a      	movhi	r3, #138	; 0x8a
 8003c20:	700a      	strbls	r2, [r1, #0]
 8003c22:	6003      	strhi	r3, [r0, #0]
 8003c24:	2001      	movls	r0, #1
 8003c26:	bf88      	it	hi
 8003c28:	f04f 30ff 	movhi.w	r0, #4294967295	; 0xffffffff
 8003c2c:	4770      	bx	lr
 8003c2e:	4608      	mov	r0, r1
 8003c30:	4770      	bx	lr

08003c32 <_malloc_usable_size_r>:
 8003c32:	f851 0c04 	ldr.w	r0, [r1, #-4]
 8003c36:	2800      	cmp	r0, #0
 8003c38:	f1a0 0004 	sub.w	r0, r0, #4
 8003c3c:	bfbc      	itt	lt
 8003c3e:	580b      	ldrlt	r3, [r1, r0]
 8003c40:	18c0      	addlt	r0, r0, r3
 8003c42:	4770      	bx	lr

08003c44 <_sbrk>:
 8003c44:	4b04      	ldr	r3, [pc, #16]	; (8003c58 <_sbrk+0x14>)
 8003c46:	4602      	mov	r2, r0
 8003c48:	6819      	ldr	r1, [r3, #0]
 8003c4a:	b909      	cbnz	r1, 8003c50 <_sbrk+0xc>
 8003c4c:	4903      	ldr	r1, [pc, #12]	; (8003c5c <_sbrk+0x18>)
 8003c4e:	6019      	str	r1, [r3, #0]
 8003c50:	6818      	ldr	r0, [r3, #0]
 8003c52:	4402      	add	r2, r0
 8003c54:	601a      	str	r2, [r3, #0]
 8003c56:	4770      	bx	lr
 8003c58:	20000204 	.word	0x20000204
 8003c5c:	20000250 	.word	0x20000250

08003c60 <_init>:
 8003c60:	b5f8      	push	{r3, r4, r5, r6, r7, lr}
 8003c62:	bf00      	nop
 8003c64:	bcf8      	pop	{r3, r4, r5, r6, r7}
 8003c66:	bc08      	pop	{r3}
 8003c68:	469e      	mov	lr, r3
 8003c6a:	4770      	bx	lr

08003c6c <_fini>:
 8003c6c:	b5f8      	push	{r3, r4, r5, r6, r7, lr}
 8003c6e:	bf00      	nop
 8003c70:	bcf8      	pop	{r3, r4, r5, r6, r7}
 8003c72:	bc08      	pop	{r3}
 8003c74:	469e      	mov	lr, r3
 8003c76:	4770      	bx	lr
